# SymbolsHelper-Confirmed: 6.7.2 amd64
libQt6WaylandClient.so.6 libqt6waylandclient6 #MINVER#
| libqt6waylandclient6 #MINVER#, qt6-waylandclient-private-abi (= 6.8.2)
* Build-Depends-Packages: qt6-wayland-dev, qt6-wayland-private-dev
 NonQt@NonQt 6.7.2
 Qt_6@Qt_6 6.6.0
 (symver)Qt_6_PRIVATE_API 0 1
 _ZN15QtWaylandClient12lcQpaWaylandEv@Qt_6 6.6.0
 _ZN23QWaylandClientExtension10initializeEv@Qt_6 6.6.0
 _ZN23QWaylandClientExtension10setVersionEi@Qt_6 6.6.0
 _ZN23QWaylandClientExtension11qt_metacallEN11QMetaObject4CallEiPPv@Qt_6 6.6.0
 _ZN23QWaylandClientExtension11qt_metacastEPKc@Qt_6 6.6.0
 _ZN23QWaylandClientExtension13activeChangedEv@Qt_6 6.6.0
 _ZN23QWaylandClientExtension14versionChangedEv@Qt_6 6.6.0
 _ZN23QWaylandClientExtension16staticMetaObjectE@Qt_6 6.6.0
 _ZN23QWaylandClientExtensionC1Ei@Qt_6 6.6.0
 _ZN23QWaylandClientExtensionC2Ei@Qt_6 6.6.0
 _ZN23QWaylandClientExtensionD0Ev@Qt_6 6.6.0
 _ZN23QWaylandClientExtensionD1Ev@Qt_6 6.6.0
 _ZN23QWaylandClientExtensionD2Ev@Qt_6 6.6.0
 _ZN9QtWayland10wl_pointer10fromObjectEP10wl_pointer@Qt_6 6.6.0
 _ZN9QtWayland10wl_pointer10set_cursorEjP10wl_surfaceii@Qt_6 6.6.0
 _ZN9QtWayland10wl_pointer11handle_axisEPvP10wl_pointerjji@Qt_6 6.6.0
 _ZN9QtWayland10wl_pointer12handle_enterEPvP10wl_pointerjP10wl_surfaceii@Qt_6 6.6.0
 _ZN9QtWayland10wl_pointer12handle_frameEPvP10wl_pointer@Qt_6 6.6.0
 _ZN9QtWayland10wl_pointer12handle_leaveEPvP10wl_pointerjP10wl_surface@Qt_6 6.6.0
 _ZN9QtWayland10wl_pointer12pointer_axisEjji@Qt_6 6.6.0
 _ZN9QtWayland10wl_pointer13handle_buttonEPvP10wl_pointerjjjj@Qt_6 6.6.0
 _ZN9QtWayland10wl_pointer13handle_motionEPvP10wl_pointerjii@Qt_6 6.6.0
 _ZN9QtWayland10wl_pointer13init_listenerEv@Qt_6 6.6.0
 _ZN9QtWayland10wl_pointer13pointer_enterEjP10wl_surfaceii@Qt_6 6.6.0
 _ZN9QtWayland10wl_pointer13pointer_frameEv@Qt_6 6.6.0
 _ZN9QtWayland10wl_pointer13pointer_leaveEjP10wl_surface@Qt_6 6.6.0
 _ZN9QtWayland10wl_pointer14pointer_buttonEjjjj@Qt_6 6.6.0
 _ZN9QtWayland10wl_pointer14pointer_motionEjii@Qt_6 6.6.0
 _ZN9QtWayland10wl_pointer16handle_axis_stopEPvP10wl_pointerjj@Qt_6 6.6.0
 _ZN9QtWayland10wl_pointer17pointer_axis_stopEjj@Qt_6 6.6.0
 _ZN9QtWayland10wl_pointer18handle_axis_sourceEPvP10wl_pointerj@Qt_6 6.6.0
 _ZN9QtWayland10wl_pointer19pointer_axis_sourceEj@Qt_6 6.6.0
 _ZN9QtWayland10wl_pointer20handle_axis_discreteEPvP10wl_pointerji@Qt_6 6.6.0
 _ZN9QtWayland10wl_pointer20handle_axis_value120EPvP10wl_pointerji@Qt_6 6.6.0
 _ZN9QtWayland10wl_pointer21m_wl_pointer_listenerE@Qt_6 6.6.0
 _ZN9QtWayland10wl_pointer21pointer_axis_discreteEji@Qt_6 6.6.0
 _ZN9QtWayland10wl_pointer21pointer_axis_value120Eji@Qt_6 6.6.0
 _ZN9QtWayland10wl_pointer30handle_axis_relative_directionEPvP10wl_pointerjj@Qt_6 6.6.0
 _ZN9QtWayland10wl_pointer31pointer_axis_relative_directionEjj@Qt_6 6.6.0
 _ZN9QtWayland10wl_pointer4initEP10wl_pointer@Qt_6 6.6.0
 _ZN9QtWayland10wl_pointer4initEP11wl_registryji@Qt_6 6.6.0
 _ZN9QtWayland10wl_pointer7releaseEv@Qt_6 6.6.0
 _ZN9QtWayland10wl_pointer9interfaceEv@Qt_6 6.6.0
 _ZN9QtWayland10wl_pointerC1EP10wl_pointer@Qt_6 6.6.0
 _ZN9QtWayland10wl_pointerC1EP11wl_registryji@Qt_6 6.6.0
 _ZN9QtWayland10wl_pointerC1Ev@Qt_6 6.6.0
 _ZN9QtWayland10wl_pointerC2EP10wl_pointer@Qt_6 6.6.0
 _ZN9QtWayland10wl_pointerC2EP11wl_registryji@Qt_6 6.6.0
 _ZN9QtWayland10wl_pointerC2Ev@Qt_6 6.6.0
 _ZN9QtWayland10wl_pointerD0Ev@Qt_6 6.6.0
 _ZN9QtWayland10wl_pointerD1Ev@Qt_6 6.6.0
 _ZN9QtWayland10wl_pointerD2Ev@Qt_6 6.6.0
 _ZN9QtWayland10wl_surface10fromObjectEP10wl_surface@Qt_6 6.6.0
 _ZN9QtWayland10wl_surface12handle_enterEPvP10wl_surfaceP9wl_output@Qt_6 6.6.0
 _ZN9QtWayland10wl_surface12handle_leaveEPvP10wl_surfaceP9wl_output@Qt_6 6.6.0
 _ZN9QtWayland10wl_surface13damage_bufferEiiii@Qt_6 6.6.0
 _ZN9QtWayland10wl_surface13init_listenerEv@Qt_6 6.6.0
 _ZN9QtWayland10wl_surface13surface_enterEP9wl_output@Qt_6 6.6.0
 _ZN9QtWayland10wl_surface13surface_leaveEP9wl_output@Qt_6 6.6.0
 _ZN9QtWayland10wl_surface16set_buffer_scaleEi@Qt_6 6.6.0
 _ZN9QtWayland10wl_surface16set_input_regionEP9wl_region@Qt_6 6.6.0
 _ZN9QtWayland10wl_surface17set_opaque_regionEP9wl_region@Qt_6 6.6.0
 _ZN9QtWayland10wl_surface20set_buffer_transformEi@Qt_6 6.6.0
 _ZN9QtWayland10wl_surface21m_wl_surface_listenerE@Qt_6 6.6.0
 _ZN9QtWayland10wl_surface29handle_preferred_buffer_scaleEPvP10wl_surfacei@Qt_6 6.6.0
 _ZN9QtWayland10wl_surface30surface_preferred_buffer_scaleEi@Qt_6 6.6.0
 _ZN9QtWayland10wl_surface33handle_preferred_buffer_transformEPvP10wl_surfacej@Qt_6 6.6.0
 _ZN9QtWayland10wl_surface34surface_preferred_buffer_transformEj@Qt_6 6.6.0
 _ZN9QtWayland10wl_surface4initEP10wl_surface@Qt_6 6.6.0
 _ZN9QtWayland10wl_surface4initEP11wl_registryji@Qt_6 6.6.0
 _ZN9QtWayland10wl_surface5frameEv@Qt_6 6.6.0
 _ZN9QtWayland10wl_surface6attachEP9wl_bufferii@Qt_6 6.6.0
 _ZN9QtWayland10wl_surface6commitEv@Qt_6 6.6.0
 _ZN9QtWayland10wl_surface6damageEiiii@Qt_6 6.6.0
 _ZN9QtWayland10wl_surface6offsetEii@Qt_6 6.6.0
 _ZN9QtWayland10wl_surface7destroyEv@Qt_6 6.6.0
 _ZN9QtWayland10wl_surface9interfaceEv@Qt_6 6.6.0
 _ZN9QtWayland10wl_surfaceC1EP10wl_surface@Qt_6 6.6.0
 _ZN9QtWayland10wl_surfaceC1EP11wl_registryji@Qt_6 6.6.0
 _ZN9QtWayland10wl_surfaceC1Ev@Qt_6 6.6.0
 _ZN9QtWayland10wl_surfaceC2EP10wl_surface@Qt_6 6.6.0
 _ZN9QtWayland10wl_surfaceC2EP11wl_registryji@Qt_6 6.6.0
 _ZN9QtWayland10wl_surfaceC2Ev@Qt_6 6.6.0
 _ZN9QtWayland10wl_surfaceD0Ev@Qt_6 6.6.0
 _ZN9QtWayland10wl_surfaceD1Ev@Qt_6 6.6.0
 _ZN9QtWayland10wl_surfaceD2Ev@Qt_6 6.6.0
 _ZN9QtWayland10zqt_key_v110fromObjectEP10zqt_key_v1@Qt_6 6.6.0
 _ZN9QtWayland10zqt_key_v110handle_keyEPvP10zqt_key_v1P10wl_surfacejjjjjjjPKcjj@Qt_6 6.6.0
 _ZN9QtWayland10zqt_key_v113init_listenerEv@Qt_6 6.6.0
 _ZN9QtWayland10zqt_key_v114zqt_key_v1_keyEP10wl_surfacejjjjjjjRK7QStringjj@Qt_6 6.6.0
 _ZN9QtWayland10zqt_key_v121m_zqt_key_v1_listenerE@Qt_6 6.6.0
 _ZN9QtWayland10zqt_key_v14initEP10zqt_key_v1@Qt_6 6.6.0
 _ZN9QtWayland10zqt_key_v14initEP11wl_registryji@Qt_6 6.6.0
 _ZN9QtWayland10zqt_key_v19interfaceEv@Qt_6 6.6.0
 _ZN9QtWayland10zqt_key_v1C1EP10zqt_key_v1@Qt_6 6.6.0
 _ZN9QtWayland10zqt_key_v1C1EP11wl_registryji@Qt_6 6.6.0
 _ZN9QtWayland10zqt_key_v1C1Ev@Qt_6 6.6.0
 _ZN9QtWayland10zqt_key_v1C2EP10zqt_key_v1@Qt_6 6.6.0
 _ZN9QtWayland10zqt_key_v1C2EP11wl_registryji@Qt_6 6.6.0
 _ZN9QtWayland10zqt_key_v1C2Ev@Qt_6 6.6.0
 _ZN9QtWayland10zqt_key_v1D0Ev@Qt_6 6.6.0
 _ZN9QtWayland10zqt_key_v1D1Ev@Qt_6 6.6.0
 _ZN9QtWayland10zqt_key_v1D2Ev@Qt_6 6.6.0
 _ZN9QtWayland11wl_callback10fromObjectEP11wl_callback@Qt_6 6.6.0
 _ZN9QtWayland11wl_callback11handle_doneEPvP11wl_callbackj@Qt_6 6.6.0
 _ZN9QtWayland11wl_callback13callback_doneEj@Qt_6 6.6.0
 _ZN9QtWayland11wl_callback13init_listenerEv@Qt_6 6.6.0
 _ZN9QtWayland11wl_callback22m_wl_callback_listenerE@Qt_6 6.6.0
 _ZN9QtWayland11wl_callback4initEP11wl_callback@Qt_6 6.6.0
 _ZN9QtWayland11wl_callback4initEP11wl_registryji@Qt_6 6.6.0
 _ZN9QtWayland11wl_callback9interfaceEv@Qt_6 6.6.0
 _ZN9QtWayland11wl_callbackC1EP11wl_callback@Qt_6 6.6.0
 _ZN9QtWayland11wl_callbackC1EP11wl_registryji@Qt_6 6.6.0
 _ZN9QtWayland11wl_callbackC1Ev@Qt_6 6.6.0
 _ZN9QtWayland11wl_callbackC2EP11wl_callback@Qt_6 6.6.0
 _ZN9QtWayland11wl_callbackC2EP11wl_registryji@Qt_6 6.6.0
 _ZN9QtWayland11wl_callbackC2Ev@Qt_6 6.6.0
 _ZN9QtWayland11wl_callbackD0Ev@Qt_6 6.6.0
 _ZN9QtWayland11wl_callbackD1Ev@Qt_6 6.6.0
 _ZN9QtWayland11wl_callbackD2Ev@Qt_6 6.6.0
 _ZN9QtWayland11wl_keyboard10fromObjectEP11wl_keyboard@Qt_6 6.6.0
 _ZN9QtWayland11wl_keyboard10handle_keyEPvP11wl_keyboardjjjj@Qt_6 6.6.0
 _ZN9QtWayland11wl_keyboard12handle_enterEPvP11wl_keyboardjP10wl_surfaceP8wl_array@Qt_6 6.6.0
 _ZN9QtWayland11wl_keyboard12handle_leaveEPvP11wl_keyboardjP10wl_surface@Qt_6 6.6.0
 _ZN9QtWayland11wl_keyboard12keyboard_keyEjjjj@Qt_6 6.6.0
 _ZN9QtWayland11wl_keyboard13handle_keymapEPvP11wl_keyboardjij@Qt_6 6.6.0
 _ZN9QtWayland11wl_keyboard13init_listenerEv@Qt_6 6.6.0
 _ZN9QtWayland11wl_keyboard14keyboard_enterEjP10wl_surfaceP8wl_array@Qt_6 6.6.0
 _ZN9QtWayland11wl_keyboard14keyboard_leaveEjP10wl_surface@Qt_6 6.6.0
 _ZN9QtWayland11wl_keyboard15keyboard_keymapEjij@Qt_6 6.6.0
 _ZN9QtWayland11wl_keyboard16handle_modifiersEPvP11wl_keyboardjjjjj@Qt_6 6.6.0
 _ZN9QtWayland11wl_keyboard18handle_repeat_infoEPvP11wl_keyboardii@Qt_6 6.6.0
 _ZN9QtWayland11wl_keyboard18keyboard_modifiersEjjjjj@Qt_6 6.6.0
 _ZN9QtWayland11wl_keyboard20keyboard_repeat_infoEii@Qt_6 6.6.0
 _ZN9QtWayland11wl_keyboard22m_wl_keyboard_listenerE@Qt_6 6.6.0
 _ZN9QtWayland11wl_keyboard4initEP11wl_keyboard@Qt_6 6.6.0
 _ZN9QtWayland11wl_keyboard4initEP11wl_registryji@Qt_6 6.6.0
 _ZN9QtWayland11wl_keyboard7releaseEv@Qt_6 6.6.0
 _ZN9QtWayland11wl_keyboard9interfaceEv@Qt_6 6.6.0
 _ZN9QtWayland11wl_keyboardC1EP11wl_keyboard@Qt_6 6.6.0
 _ZN9QtWayland11wl_keyboardC1EP11wl_registryji@Qt_6 6.6.0
 _ZN9QtWayland11wl_keyboardC1Ev@Qt_6 6.6.0
 _ZN9QtWayland11wl_keyboardC2EP11wl_keyboard@Qt_6 6.6.0
 _ZN9QtWayland11wl_keyboardC2EP11wl_registryji@Qt_6 6.6.0
 _ZN9QtWayland11wl_keyboardC2Ev@Qt_6 6.6.0
 _ZN9QtWayland11wl_keyboardD0Ev@Qt_6 6.6.0
 _ZN9QtWayland11wl_keyboardD1Ev@Qt_6 6.6.0
 _ZN9QtWayland11wl_keyboardD2Ev@Qt_6 6.6.0
 _ZN9QtWayland11wl_registry10fromObjectEP11wl_registry@Qt_6 6.6.0
 _ZN9QtWayland11wl_registry13handle_globalEPvP11wl_registryjPKcj@Qt_6 6.6.0
 _ZN9QtWayland11wl_registry13init_listenerEv@Qt_6 6.6.0
 _ZN9QtWayland11wl_registry15registry_globalEjRK7QStringj@Qt_6 6.6.0
 _ZN9QtWayland11wl_registry20handle_global_removeEPvP11wl_registryj@Qt_6 6.6.0
 _ZN9QtWayland11wl_registry22m_wl_registry_listenerE@Qt_6 6.6.0
 _ZN9QtWayland11wl_registry22registry_global_removeEj@Qt_6 6.6.0
 _ZN9QtWayland11wl_registry4bindEjPK12wl_interfacej@Qt_6 6.6.0
 _ZN9QtWayland11wl_registry4initEP11wl_registry@Qt_6 6.6.0
 _ZN9QtWayland11wl_registry4initEP11wl_registryji@Qt_6 6.6.0
 _ZN9QtWayland11wl_registry9interfaceEv@Qt_6 6.6.0
 _ZN9QtWayland11wl_registryC1EP11wl_registry@Qt_6 6.6.0
 _ZN9QtWayland11wl_registryC1EP11wl_registryji@Qt_6 6.6.0
 _ZN9QtWayland11wl_registryC1Ev@Qt_6 6.6.0
 _ZN9QtWayland11wl_registryC2EP11wl_registry@Qt_6 6.6.0
 _ZN9QtWayland11wl_registryC2EP11wl_registryji@Qt_6 6.6.0
 _ZN9QtWayland11wl_registryC2Ev@Qt_6 6.6.0
 _ZN9QtWayland11wl_registryD0Ev@Qt_6 6.6.0
 _ZN9QtWayland11wl_registryD1Ev@Qt_6 6.6.0
 _ZN9QtWayland11wl_registryD2Ev@Qt_6 6.6.0
 _ZN9QtWayland11wl_shm_pool10fromObjectEP11wl_shm_pool@Qt_6 6.6.0
 _ZN9QtWayland11wl_shm_pool13create_bufferEiiiij@Qt_6 6.6.0
 _ZN9QtWayland11wl_shm_pool4initEP11wl_registryji@Qt_6 6.6.0
 _ZN9QtWayland11wl_shm_pool4initEP11wl_shm_pool@Qt_6 6.6.0
 _ZN9QtWayland11wl_shm_pool6resizeEi@Qt_6 6.6.0
 _ZN9QtWayland11wl_shm_pool7destroyEv@Qt_6 6.6.0
 _ZN9QtWayland11wl_shm_pool9interfaceEv@Qt_6 6.6.0
 _ZN9QtWayland11wl_shm_poolC1EP11wl_registryji@Qt_6 6.6.0
 _ZN9QtWayland11wl_shm_poolC1EP11wl_shm_pool@Qt_6 6.6.0
 _ZN9QtWayland11wl_shm_poolC1Ev@Qt_6 6.6.0
 _ZN9QtWayland11wl_shm_poolC2EP11wl_registryji@Qt_6 6.6.0
 _ZN9QtWayland11wl_shm_poolC2EP11wl_shm_pool@Qt_6 6.6.0
 _ZN9QtWayland11wl_shm_poolC2Ev@Qt_6 6.6.0
 _ZN9QtWayland11wl_shm_poolD0Ev@Qt_6 6.6.0
 _ZN9QtWayland11wl_shm_poolD1Ev@Qt_6 6.6.0
 _ZN9QtWayland11wl_shm_poolD2Ev@Qt_6 6.6.0
 _ZN9QtWayland11wp_viewport10fromObjectEP11wp_viewport@Qt_6 6.6.0
 _ZN9QtWayland11wp_viewport10set_sourceEiiii@Qt_6 6.6.0
 _ZN9QtWayland11wp_viewport15set_destinationEii@Qt_6 6.6.0
 _ZN9QtWayland11wp_viewport4initEP11wl_registryji@Qt_6 6.6.0
 _ZN9QtWayland11wp_viewport4initEP11wp_viewport@Qt_6 6.6.0
 _ZN9QtWayland11wp_viewport7destroyEv@Qt_6 6.6.0
 _ZN9QtWayland11wp_viewport9interfaceEv@Qt_6 6.6.0
 _ZN9QtWayland11wp_viewportC1EP11wl_registryji@Qt_6 6.6.0
 _ZN9QtWayland11wp_viewportC1EP11wp_viewport@Qt_6 6.6.0
 _ZN9QtWayland11wp_viewportC1Ev@Qt_6 6.6.0
 _ZN9QtWayland11wp_viewportC2EP11wl_registryji@Qt_6 6.6.0
 _ZN9QtWayland11wp_viewportC2EP11wp_viewport@Qt_6 6.6.0
 _ZN9QtWayland11wp_viewportC2Ev@Qt_6 6.6.0
 _ZN9QtWayland11wp_viewportD0Ev@Qt_6 6.6.0
 _ZN9QtWayland11wp_viewportD1Ev@Qt_6 6.6.0
 _ZN9QtWayland11wp_viewportD2Ev@Qt_6 6.6.0
 _ZN9QtWayland11xdg_surface10fromObjectEP11xdg_surface@Qt_6 6.6.0
 _ZN9QtWayland11xdg_surface12get_toplevelEv@Qt_6 6.6.0
 _ZN9QtWayland11xdg_surface13ack_configureEj@Qt_6 6.6.0
 _ZN9QtWayland11xdg_surface13init_listenerEv@Qt_6 6.6.0
 _ZN9QtWayland11xdg_surface16handle_configureEPvP11xdg_surfacej@Qt_6 6.6.0
 _ZN9QtWayland11xdg_surface19set_window_geometryEiiii@Qt_6 6.6.0
 _ZN9QtWayland11xdg_surface21xdg_surface_configureEj@Qt_6 6.6.0
 _ZN9QtWayland11xdg_surface22m_xdg_surface_listenerE@Qt_6 6.6.0
 _ZN9QtWayland11xdg_surface4initEP11wl_registryji@Qt_6 6.6.0
 _ZN9QtWayland11xdg_surface4initEP11xdg_surface@Qt_6 6.6.0
 _ZN9QtWayland11xdg_surface7destroyEv@Qt_6 6.6.0
 _ZN9QtWayland11xdg_surface9get_popupEP11xdg_surfaceP14xdg_positioner@Qt_6 6.6.0
 _ZN9QtWayland11xdg_surface9interfaceEv@Qt_6 6.6.0
 _ZN9QtWayland11xdg_surfaceC1EP11wl_registryji@Qt_6 6.6.0
 _ZN9QtWayland11xdg_surfaceC1EP11xdg_surface@Qt_6 6.6.0
 _ZN9QtWayland11xdg_surfaceC1Ev@Qt_6 6.6.0
 _ZN9QtWayland11xdg_surfaceC2EP11wl_registryji@Qt_6 6.6.0
 _ZN9QtWayland11xdg_surfaceC2EP11xdg_surface@Qt_6 6.6.0
 _ZN9QtWayland11xdg_surfaceC2Ev@Qt_6 6.6.0
 _ZN9QtWayland11xdg_surfaceD0Ev@Qt_6 6.6.0
 _ZN9QtWayland11xdg_surfaceD1Ev@Qt_6 6.6.0
 _ZN9QtWayland11xdg_surfaceD2Ev@Qt_6 6.6.0
 _ZN9QtWayland11xdg_wm_base10fromObjectEP11xdg_wm_base@Qt_6 6.6.0
 _ZN9QtWayland11xdg_wm_base11handle_pingEPvP11xdg_wm_basej@Qt_6 6.6.0
 _ZN9QtWayland11xdg_wm_base13init_listenerEv@Qt_6 6.6.0
 _ZN9QtWayland11xdg_wm_base15get_xdg_surfaceEP10wl_surface@Qt_6 6.6.0
 _ZN9QtWayland11xdg_wm_base16xdg_wm_base_pingEj@Qt_6 6.6.0
 _ZN9QtWayland11xdg_wm_base17create_positionerEv@Qt_6 6.6.0
 _ZN9QtWayland11xdg_wm_base22m_xdg_wm_base_listenerE@Qt_6 6.6.0
 _ZN9QtWayland11xdg_wm_base4initEP11wl_registryji@Qt_6 6.6.0
 _ZN9QtWayland11xdg_wm_base4initEP11xdg_wm_base@Qt_6 6.6.0
 _ZN9QtWayland11xdg_wm_base4pongEj@Qt_6 6.6.0
 _ZN9QtWayland11xdg_wm_base7destroyEv@Qt_6 6.6.0
 _ZN9QtWayland11xdg_wm_base9interfaceEv@Qt_6 6.6.0
 _ZN9QtWayland11xdg_wm_baseC1EP11wl_registryji@Qt_6 6.6.0
 _ZN9QtWayland11xdg_wm_baseC1EP11xdg_wm_base@Qt_6 6.6.0
 _ZN9QtWayland11xdg_wm_baseC1Ev@Qt_6 6.6.0
 _ZN9QtWayland11xdg_wm_baseC2EP11wl_registryji@Qt_6 6.6.0
 _ZN9QtWayland11xdg_wm_baseC2EP11xdg_wm_base@Qt_6 6.6.0
 _ZN9QtWayland11xdg_wm_baseC2Ev@Qt_6 6.6.0
 _ZN9QtWayland11xdg_wm_baseD0Ev@Qt_6 6.6.0
 _ZN9QtWayland11xdg_wm_baseD1Ev@Qt_6 6.6.0
 _ZN9QtWayland11xdg_wm_baseD2Ev@Qt_6 6.6.0
 _ZN9QtWayland12xdg_toplevel10fromObjectEP12xdg_toplevel@Qt_6 6.6.0
 _ZN9QtWayland12xdg_toplevel10set_app_idERK7QString@Qt_6 6.6.0
 _ZN9QtWayland12xdg_toplevel10set_parentEP12xdg_toplevel@Qt_6 6.6.0
 _ZN9QtWayland12xdg_toplevel12handle_closeEPvP12xdg_toplevel@Qt_6 6.6.0
 _ZN9QtWayland12xdg_toplevel12set_max_sizeEii@Qt_6 6.6.0
 _ZN9QtWayland12xdg_toplevel12set_min_sizeEii@Qt_6 6.6.0
 _ZN9QtWayland12xdg_toplevel13init_listenerEv@Qt_6 6.6.0
 _ZN9QtWayland12xdg_toplevel13set_maximizedEv@Qt_6 6.6.0
 _ZN9QtWayland12xdg_toplevel13set_minimizedEv@Qt_6 6.6.0
 _ZN9QtWayland12xdg_toplevel14set_fullscreenEP9wl_output@Qt_6 6.6.0
 _ZN9QtWayland12xdg_toplevel15unset_maximizedEv@Qt_6 6.6.0
 _ZN9QtWayland12xdg_toplevel16handle_configureEPvP12xdg_topleveliiP8wl_array@Qt_6 6.6.0
 _ZN9QtWayland12xdg_toplevel16show_window_menuEP7wl_seatjii@Qt_6 6.6.0
 _ZN9QtWayland12xdg_toplevel16unset_fullscreenEv@Qt_6 6.6.0
 _ZN9QtWayland12xdg_toplevel18xdg_toplevel_closeEv@Qt_6 6.6.0
 _ZN9QtWayland12xdg_toplevel22handle_wm_capabilitiesEPvP12xdg_toplevelP8wl_array@Qt_6 6.7.2
 _ZN9QtWayland12xdg_toplevel22xdg_toplevel_configureEiiP8wl_array@Qt_6 6.6.0
 _ZN9QtWayland12xdg_toplevel23handle_configure_boundsEPvP12xdg_toplevelii@Qt_6 6.6.0
 _ZN9QtWayland12xdg_toplevel23m_xdg_toplevel_listenerE@Qt_6 6.6.0
 _ZN9QtWayland12xdg_toplevel28xdg_toplevel_wm_capabilitiesEP8wl_array@Qt_6 6.7.2
 _ZN9QtWayland12xdg_toplevel29xdg_toplevel_configure_boundsEii@Qt_6 6.6.0
 _ZN9QtWayland12xdg_toplevel4initEP11wl_registryji@Qt_6 6.6.0
 _ZN9QtWayland12xdg_toplevel4initEP12xdg_toplevel@Qt_6 6.6.0
 _ZN9QtWayland12xdg_toplevel4moveEP7wl_seatj@Qt_6 6.6.0
 _ZN9QtWayland12xdg_toplevel6resizeEP7wl_seatjj@Qt_6 6.6.0
 _ZN9QtWayland12xdg_toplevel7destroyEv@Qt_6 6.6.0
 _ZN9QtWayland12xdg_toplevel9interfaceEv@Qt_6 6.6.0
 _ZN9QtWayland12xdg_toplevel9set_titleERK7QString@Qt_6 6.6.0
 _ZN9QtWayland12xdg_toplevelC1EP11wl_registryji@Qt_6 6.6.0
 _ZN9QtWayland12xdg_toplevelC1EP12xdg_toplevel@Qt_6 6.6.0
 _ZN9QtWayland12xdg_toplevelC1Ev@Qt_6 6.6.0
 _ZN9QtWayland12xdg_toplevelC2EP11wl_registryji@Qt_6 6.6.0
 _ZN9QtWayland12xdg_toplevelC2EP12xdg_toplevel@Qt_6 6.6.0
 _ZN9QtWayland12xdg_toplevelC2Ev@Qt_6 6.6.0
 _ZN9QtWayland12xdg_toplevelD0Ev@Qt_6 6.6.0
 _ZN9QtWayland12xdg_toplevelD1Ev@Qt_6 6.6.0
 _ZN9QtWayland12xdg_toplevelD2Ev@Qt_6 6.6.0
 _ZN9QtWayland13wl_compositor10fromObjectEP13wl_compositor@Qt_6 6.6.0
 _ZN9QtWayland13wl_compositor13create_regionEv@Qt_6 6.6.0
 _ZN9QtWayland13wl_compositor14create_surfaceEv@Qt_6 6.6.0
 _ZN9QtWayland13wl_compositor4initEP11wl_registryji@Qt_6 6.6.0
 _ZN9QtWayland13wl_compositor4initEP13wl_compositor@Qt_6 6.6.0
 _ZN9QtWayland13wl_compositor9interfaceEv@Qt_6 6.6.0
 _ZN9QtWayland13wl_compositorC1EP11wl_registryji@Qt_6 6.6.0
 _ZN9QtWayland13wl_compositorC1EP13wl_compositor@Qt_6 6.6.0
 _ZN9QtWayland13wl_compositorC1Ev@Qt_6 6.6.0
 _ZN9QtWayland13wl_compositorC2EP11wl_registryji@Qt_6 6.6.0
 _ZN9QtWayland13wl_compositorC2EP13wl_compositor@Qt_6 6.6.0
 _ZN9QtWayland13wl_compositorC2Ev@Qt_6 6.6.0
 _ZN9QtWayland13wl_compositorD0Ev@Qt_6 6.6.0
 _ZN9QtWayland13wl_compositorD1Ev@Qt_6 6.6.0
 _ZN9QtWayland13wl_compositorD2Ev@Qt_6 6.6.0
 _ZN9QtWayland13wl_data_offer10fromObjectEP13wl_data_offer@Qt_6 6.6.0
 _ZN9QtWayland13wl_data_offer11set_actionsEjj@Qt_6 6.6.0
 _ZN9QtWayland13wl_data_offer12handle_offerEPvP13wl_data_offerPKc@Qt_6 6.6.0
 _ZN9QtWayland13wl_data_offer13handle_actionEPvP13wl_data_offerj@Qt_6 6.6.0
 _ZN9QtWayland13wl_data_offer13init_listenerEv@Qt_6 6.6.0
 _ZN9QtWayland13wl_data_offer16data_offer_offerERK7QString@Qt_6 6.6.0
 _ZN9QtWayland13wl_data_offer17data_offer_actionEj@Qt_6 6.6.0
 _ZN9QtWayland13wl_data_offer21handle_source_actionsEPvP13wl_data_offerj@Qt_6 6.6.0
 _ZN9QtWayland13wl_data_offer24m_wl_data_offer_listenerE@Qt_6 6.6.0
 _ZN9QtWayland13wl_data_offer25data_offer_source_actionsEj@Qt_6 6.6.0
 _ZN9QtWayland13wl_data_offer4initEP11wl_registryji@Qt_6 6.6.0
 _ZN9QtWayland13wl_data_offer4initEP13wl_data_offer@Qt_6 6.6.0
 _ZN9QtWayland13wl_data_offer6acceptEjRK7QString@Qt_6 6.6.0
 _ZN9QtWayland13wl_data_offer6finishEv@Qt_6 6.6.0
 _ZN9QtWayland13wl_data_offer7destroyEv@Qt_6 6.6.0
 _ZN9QtWayland13wl_data_offer7receiveERK7QStringi@Qt_6 6.6.0
 _ZN9QtWayland13wl_data_offer9interfaceEv@Qt_6 6.6.0
 _ZN9QtWayland13wl_data_offerC1EP11wl_registryji@Qt_6 6.6.0
 _ZN9QtWayland13wl_data_offerC1EP13wl_data_offer@Qt_6 6.6.0
 _ZN9QtWayland13wl_data_offerC1Ev@Qt_6 6.6.0
 _ZN9QtWayland13wl_data_offerC2EP11wl_registryji@Qt_6 6.6.0
 _ZN9QtWayland13wl_data_offerC2EP13wl_data_offer@Qt_6 6.6.0
 _ZN9QtWayland13wl_data_offerC2Ev@Qt_6 6.6.0
 _ZN9QtWayland13wl_data_offerD0Ev@Qt_6 6.6.0
 _ZN9QtWayland13wl_data_offerD1Ev@Qt_6 6.6.0
 _ZN9QtWayland13wl_data_offerD2Ev@Qt_6 6.6.0
 _ZN9QtWayland13wl_subsurface10fromObjectEP13wl_subsurface@Qt_6 6.6.0
 _ZN9QtWayland13wl_subsurface10set_desyncEv@Qt_6 6.6.0
 _ZN9QtWayland13wl_subsurface11place_aboveEP10wl_surface@Qt_6 6.6.0
 _ZN9QtWayland13wl_subsurface11place_belowEP10wl_surface@Qt_6 6.6.0
 _ZN9QtWayland13wl_subsurface12set_positionEii@Qt_6 6.6.0
 _ZN9QtWayland13wl_subsurface4initEP11wl_registryji@Qt_6 6.6.0
 _ZN9QtWayland13wl_subsurface4initEP13wl_subsurface@Qt_6 6.6.0
 _ZN9QtWayland13wl_subsurface7destroyEv@Qt_6 6.6.0
 _ZN9QtWayland13wl_subsurface8set_syncEv@Qt_6 6.6.0
 _ZN9QtWayland13wl_subsurface9interfaceEv@Qt_6 6.6.0
 _ZN9QtWayland13wl_subsurfaceC1EP11wl_registryji@Qt_6 6.6.0
 _ZN9QtWayland13wl_subsurfaceC1EP13wl_subsurface@Qt_6 6.6.0
 _ZN9QtWayland13wl_subsurfaceC1Ev@Qt_6 6.6.0
 _ZN9QtWayland13wl_subsurfaceC2EP11wl_registryji@Qt_6 6.6.0
 _ZN9QtWayland13wl_subsurfaceC2EP13wl_subsurface@Qt_6 6.6.0
 _ZN9QtWayland13wl_subsurfaceC2Ev@Qt_6 6.6.0
 _ZN9QtWayland13wl_subsurfaceD0Ev@Qt_6 6.6.0
 _ZN9QtWayland13wl_subsurfaceD1Ev@Qt_6 6.6.0
 _ZN9QtWayland13wl_subsurfaceD2Ev@Qt_6 6.6.0
 _ZN9QtWayland13wp_viewporter10fromObjectEP13wp_viewporter@Qt_6 6.6.0
 _ZN9QtWayland13wp_viewporter12get_viewportEP10wl_surface@Qt_6 6.6.0
 _ZN9QtWayland13wp_viewporter4initEP11wl_registryji@Qt_6 6.6.0
 _ZN9QtWayland13wp_viewporter4initEP13wp_viewporter@Qt_6 6.6.0
 _ZN9QtWayland13wp_viewporter7destroyEv@Qt_6 6.6.0
 _ZN9QtWayland13wp_viewporter9interfaceEv@Qt_6 6.6.0
 _ZN9QtWayland13wp_viewporterC1EP11wl_registryji@Qt_6 6.6.0
 _ZN9QtWayland13wp_viewporterC1EP13wp_viewporter@Qt_6 6.6.0
 _ZN9QtWayland13wp_viewporterC1Ev@Qt_6 6.6.0
 _ZN9QtWayland13wp_viewporterC2EP11wl_registryji@Qt_6 6.6.0
 _ZN9QtWayland13wp_viewporterC2EP13wp_viewporter@Qt_6 6.6.0
 _ZN9QtWayland13wp_viewporterC2Ev@Qt_6 6.6.0
 _ZN9QtWayland13wp_viewporterD0Ev@Qt_6 6.6.0
 _ZN9QtWayland13wp_viewporterD1Ev@Qt_6 6.6.0
 _ZN9QtWayland13wp_viewporterD2Ev@Qt_6 6.6.0
 _ZN9QtWayland13zwp_tablet_v210fromObjectEP13zwp_tablet_v2@Qt_6 6.6.0
 _ZN9QtWayland13zwp_tablet_v211handle_doneEPvP13zwp_tablet_v2@Qt_6 6.6.0
 _ZN9QtWayland13zwp_tablet_v211handle_nameEPvP13zwp_tablet_v2PKc@Qt_6 6.6.0
 _ZN9QtWayland13zwp_tablet_v211handle_pathEPvP13zwp_tablet_v2PKc@Qt_6 6.6.0
 _ZN9QtWayland13zwp_tablet_v213init_listenerEv@Qt_6 6.6.0
 _ZN9QtWayland13zwp_tablet_v214handle_removedEPvP13zwp_tablet_v2@Qt_6 6.6.0
 _ZN9QtWayland13zwp_tablet_v216zwp_tablet_v2_idEjj@Qt_6 6.6.0
 _ZN9QtWayland13zwp_tablet_v218zwp_tablet_v2_doneEv@Qt_6 6.6.0
 _ZN9QtWayland13zwp_tablet_v218zwp_tablet_v2_nameERK7QString@Qt_6 6.6.0
 _ZN9QtWayland13zwp_tablet_v218zwp_tablet_v2_pathERK7QString@Qt_6 6.6.0
 _ZN9QtWayland13zwp_tablet_v221zwp_tablet_v2_removedEv@Qt_6 6.6.0
 _ZN9QtWayland13zwp_tablet_v224m_zwp_tablet_v2_listenerE@Qt_6 6.6.0
 _ZN9QtWayland13zwp_tablet_v24initEP11wl_registryji@Qt_6 6.6.0
 _ZN9QtWayland13zwp_tablet_v24initEP13zwp_tablet_v2@Qt_6 6.6.0
 _ZN9QtWayland13zwp_tablet_v27destroyEv@Qt_6 6.6.0
 _ZN9QtWayland13zwp_tablet_v29handle_idEPvP13zwp_tablet_v2jj@Qt_6 6.6.0
 _ZN9QtWayland13zwp_tablet_v29interfaceEv@Qt_6 6.6.0
 _ZN9QtWayland13zwp_tablet_v2C1EP11wl_registryji@Qt_6 6.6.0
 _ZN9QtWayland13zwp_tablet_v2C1EP13zwp_tablet_v2@Qt_6 6.6.0
 _ZN9QtWayland13zwp_tablet_v2C1Ev@Qt_6 6.6.0
 _ZN9QtWayland13zwp_tablet_v2C2EP11wl_registryji@Qt_6 6.6.0
 _ZN9QtWayland13zwp_tablet_v2C2EP13zwp_tablet_v2@Qt_6 6.6.0
 _ZN9QtWayland13zwp_tablet_v2C2Ev@Qt_6 6.6.0
 _ZN9QtWayland13zwp_tablet_v2D0Ev@Qt_6 6.6.0
 _ZN9QtWayland13zwp_tablet_v2D1Ev@Qt_6 6.6.0
 _ZN9QtWayland13zwp_tablet_v2D2Ev@Qt_6 6.6.0
 _ZN9QtWayland14wl_data_device10fromObjectEP14wl_data_device@Qt_6 6.6.0
 _ZN9QtWayland14wl_data_device10start_dragEP14wl_data_sourceP10wl_surfaceS4_j@Qt_6 6.6.0
 _ZN9QtWayland14wl_data_device11handle_dropEPvP14wl_data_device@Qt_6 6.6.0
 _ZN9QtWayland14wl_data_device12handle_enterEPvP14wl_data_devicejP10wl_surfaceiiP13wl_data_offer@Qt_6 6.6.0
 _ZN9QtWayland14wl_data_device12handle_leaveEPvP14wl_data_device@Qt_6 6.6.0
 _ZN9QtWayland14wl_data_device13handle_motionEPvP14wl_data_devicejii@Qt_6 6.6.0
 _ZN9QtWayland14wl_data_device13init_listenerEv@Qt_6 6.6.0
 _ZN9QtWayland14wl_data_device13set_selectionEP14wl_data_sourcej@Qt_6 6.6.0
 _ZN9QtWayland14wl_data_device16data_device_dropEv@Qt_6 6.6.0
 _ZN9QtWayland14wl_data_device16handle_selectionEPvP14wl_data_deviceP13wl_data_offer@Qt_6 6.6.0
 _ZN9QtWayland14wl_data_device17data_device_enterEjP10wl_surfaceiiP13wl_data_offer@Qt_6 6.6.0
 _ZN9QtWayland14wl_data_device17data_device_leaveEv@Qt_6 6.6.0
 _ZN9QtWayland14wl_data_device17handle_data_offerEPvP14wl_data_deviceP13wl_data_offer@Qt_6 6.6.0
 _ZN9QtWayland14wl_data_device18data_device_motionEjii@Qt_6 6.6.0
 _ZN9QtWayland14wl_data_device21data_device_selectionEP13wl_data_offer@Qt_6 6.6.0
 _ZN9QtWayland14wl_data_device22data_device_data_offerEP13wl_data_offer@Qt_6 6.6.0
 _ZN9QtWayland14wl_data_device25m_wl_data_device_listenerE@Qt_6 6.6.0
 _ZN9QtWayland14wl_data_device4initEP11wl_registryji@Qt_6 6.6.0
 _ZN9QtWayland14wl_data_device4initEP14wl_data_device@Qt_6 6.6.0
 _ZN9QtWayland14wl_data_device7releaseEv@Qt_6 6.6.0
 _ZN9QtWayland14wl_data_device9interfaceEv@Qt_6 6.6.0
 _ZN9QtWayland14wl_data_deviceC1EP11wl_registryji@Qt_6 6.6.0
 _ZN9QtWayland14wl_data_deviceC1EP14wl_data_device@Qt_6 6.6.0
 _ZN9QtWayland14wl_data_deviceC1Ev@Qt_6 6.6.0
 _ZN9QtWayland14wl_data_deviceC2EP11wl_registryji@Qt_6 6.6.0
 _ZN9QtWayland14wl_data_deviceC2EP14wl_data_device@Qt_6 6.6.0
 _ZN9QtWayland14wl_data_deviceC2Ev@Qt_6 6.6.0
 _ZN9QtWayland14wl_data_deviceD0Ev@Qt_6 6.6.0
 _ZN9QtWayland14wl_data_deviceD1Ev@Qt_6 6.6.0
 _ZN9QtWayland14wl_data_deviceD2Ev@Qt_6 6.6.0
 _ZN9QtWayland14wl_data_source10fromObjectEP14wl_data_source@Qt_6 6.6.0
 _ZN9QtWayland14wl_data_source11handle_sendEPvP14wl_data_sourcePKci@Qt_6 6.6.0
 _ZN9QtWayland14wl_data_source11set_actionsEj@Qt_6 6.6.0
 _ZN9QtWayland14wl_data_source13handle_actionEPvP14wl_data_sourcej@Qt_6 6.6.0
 _ZN9QtWayland14wl_data_source13handle_targetEPvP14wl_data_sourcePKc@Qt_6 6.6.0
 _ZN9QtWayland14wl_data_source13init_listenerEv@Qt_6 6.6.0
 _ZN9QtWayland14wl_data_source16data_source_sendERK7QStringi@Qt_6 6.6.0
 _ZN9QtWayland14wl_data_source16handle_cancelledEPvP14wl_data_source@Qt_6 6.6.0
 _ZN9QtWayland14wl_data_source18data_source_actionEj@Qt_6 6.6.0
 _ZN9QtWayland14wl_data_source18data_source_targetERK7QString@Qt_6 6.6.0
 _ZN9QtWayland14wl_data_source19handle_dnd_finishedEPvP14wl_data_source@Qt_6 6.6.0
 _ZN9QtWayland14wl_data_source21data_source_cancelledEv@Qt_6 6.6.0
 _ZN9QtWayland14wl_data_source24data_source_dnd_finishedEv@Qt_6 6.6.0
 _ZN9QtWayland14wl_data_source25handle_dnd_drop_performedEPvP14wl_data_source@Qt_6 6.6.0
 _ZN9QtWayland14wl_data_source25m_wl_data_source_listenerE@Qt_6 6.6.0
 _ZN9QtWayland14wl_data_source30data_source_dnd_drop_performedEv@Qt_6 6.6.0
 _ZN9QtWayland14wl_data_source4initEP11wl_registryji@Qt_6 6.6.0
 _ZN9QtWayland14wl_data_source4initEP14wl_data_source@Qt_6 6.6.0
 _ZN9QtWayland14wl_data_source5offerERK7QString@Qt_6 6.6.0
 _ZN9QtWayland14wl_data_source7destroyEv@Qt_6 6.6.0
 _ZN9QtWayland14wl_data_source9interfaceEv@Qt_6 6.6.0
 _ZN9QtWayland14wl_data_sourceC1EP11wl_registryji@Qt_6 6.6.0
 _ZN9QtWayland14wl_data_sourceC1EP14wl_data_source@Qt_6 6.6.0
 _ZN9QtWayland14wl_data_sourceC1Ev@Qt_6 6.6.0
 _ZN9QtWayland14wl_data_sourceC2EP11wl_registryji@Qt_6 6.6.0
 _ZN9QtWayland14wl_data_sourceC2EP14wl_data_source@Qt_6 6.6.0
 _ZN9QtWayland14wl_data_sourceC2Ev@Qt_6 6.6.0
 _ZN9QtWayland14wl_data_sourceD0Ev@Qt_6 6.6.0
 _ZN9QtWayland14wl_data_sourceD1Ev@Qt_6 6.6.0
 _ZN9QtWayland14wl_data_sourceD2Ev@Qt_6 6.6.0
 _ZN9QtWayland14xdg_positioner10fromObjectEP14xdg_positioner@Qt_6 6.6.0
 _ZN9QtWayland14xdg_positioner10set_anchorEj@Qt_6 6.6.0
 _ZN9QtWayland14xdg_positioner10set_offsetEii@Qt_6 6.6.0
 _ZN9QtWayland14xdg_positioner11set_gravityEj@Qt_6 6.6.0
 _ZN9QtWayland14xdg_positioner12set_reactiveEv@Qt_6 6.6.0
 _ZN9QtWayland14xdg_positioner15set_anchor_rectEiiii@Qt_6 6.6.0
 _ZN9QtWayland14xdg_positioner15set_parent_sizeEii@Qt_6 6.6.0
 _ZN9QtWayland14xdg_positioner20set_parent_configureEj@Qt_6 6.6.0
 _ZN9QtWayland14xdg_positioner25set_constraint_adjustmentEj@Qt_6 6.6.0
 _ZN9QtWayland14xdg_positioner4initEP11wl_registryji@Qt_6 6.6.0
 _ZN9QtWayland14xdg_positioner4initEP14xdg_positioner@Qt_6 6.6.0
 _ZN9QtWayland14xdg_positioner7destroyEv@Qt_6 6.6.0
 _ZN9QtWayland14xdg_positioner8set_sizeEii@Qt_6 6.6.0
 _ZN9QtWayland14xdg_positioner9interfaceEv@Qt_6 6.6.0
 _ZN9QtWayland14xdg_positionerC1EP11wl_registryji@Qt_6 6.6.0
 _ZN9QtWayland14xdg_positionerC1EP14xdg_positioner@Qt_6 6.6.0
 _ZN9QtWayland14xdg_positionerC1Ev@Qt_6 6.6.0
 _ZN9QtWayland14xdg_positionerC2EP11wl_registryji@Qt_6 6.6.0
 _ZN9QtWayland14xdg_positionerC2EP14xdg_positioner@Qt_6 6.6.0
 _ZN9QtWayland14xdg_positionerC2Ev@Qt_6 6.6.0
 _ZN9QtWayland14xdg_positionerD0Ev@Qt_6 6.6.0
 _ZN9QtWayland14xdg_positionerD1Ev@Qt_6 6.6.0
 _ZN9QtWayland14xdg_positionerD2Ev@Qt_6 6.6.0
 _ZN9QtWayland14zxdg_output_v110fromObjectEP14zxdg_output_v1@Qt_6 6.6.0
 _ZN9QtWayland14zxdg_output_v111handle_doneEPvP14zxdg_output_v1@Qt_6 6.6.0
 _ZN9QtWayland14zxdg_output_v111handle_nameEPvP14zxdg_output_v1PKc@Qt_6 6.6.0
 _ZN9QtWayland14zxdg_output_v113init_listenerEv@Qt_6 6.6.0
 _ZN9QtWayland14zxdg_output_v118handle_descriptionEPvP14zxdg_output_v1PKc@Qt_6 6.6.0
 _ZN9QtWayland14zxdg_output_v119handle_logical_sizeEPvP14zxdg_output_v1ii@Qt_6 6.6.0
 _ZN9QtWayland14zxdg_output_v119zxdg_output_v1_doneEv@Qt_6 6.6.0
 _ZN9QtWayland14zxdg_output_v119zxdg_output_v1_nameERK7QString@Qt_6 6.6.0
 _ZN9QtWayland14zxdg_output_v123handle_logical_positionEPvP14zxdg_output_v1ii@Qt_6 6.6.0
 _ZN9QtWayland14zxdg_output_v125m_zxdg_output_v1_listenerE@Qt_6 6.6.0
 _ZN9QtWayland14zxdg_output_v126zxdg_output_v1_descriptionERK7QString@Qt_6 6.6.0
 _ZN9QtWayland14zxdg_output_v127zxdg_output_v1_logical_sizeEii@Qt_6 6.6.0
 _ZN9QtWayland14zxdg_output_v131zxdg_output_v1_logical_positionEii@Qt_6 6.6.0
 _ZN9QtWayland14zxdg_output_v14initEP11wl_registryji@Qt_6 6.6.0
 _ZN9QtWayland14zxdg_output_v14initEP14zxdg_output_v1@Qt_6 6.6.0
 _ZN9QtWayland14zxdg_output_v17destroyEv@Qt_6 6.6.0
 _ZN9QtWayland14zxdg_output_v19interfaceEv@Qt_6 6.6.0
 _ZN9QtWayland14zxdg_output_v1C1EP11wl_registryji@Qt_6 6.6.0
 _ZN9QtWayland14zxdg_output_v1C1EP14zxdg_output_v1@Qt_6 6.6.0
 _ZN9QtWayland14zxdg_output_v1C1Ev@Qt_6 6.6.0
 _ZN9QtWayland14zxdg_output_v1C2EP11wl_registryji@Qt_6 6.6.0
 _ZN9QtWayland14zxdg_output_v1C2EP14zxdg_output_v1@Qt_6 6.6.0
 _ZN9QtWayland14zxdg_output_v1C2Ev@Qt_6 6.6.0
 _ZN9QtWayland14zxdg_output_v1D0Ev@Qt_6 6.6.0
 _ZN9QtWayland14zxdg_output_v1D1Ev@Qt_6 6.6.0
 _ZN9QtWayland14zxdg_output_v1D2Ev@Qt_6 6.6.0
 _ZN9QtWayland16qt_server_buffer10fromObjectEP16qt_server_buffer@Qt_6 6.6.0
 _ZN9QtWayland16qt_server_buffer4initEP11wl_registryji@Qt_6 6.6.0
 _ZN9QtWayland16qt_server_buffer4initEP16qt_server_buffer@Qt_6 6.6.0
 _ZN9QtWayland16qt_server_buffer7releaseEv@Qt_6 6.6.0
 _ZN9QtWayland16qt_server_buffer9interfaceEv@Qt_6 6.6.0
 _ZN9QtWayland16qt_server_bufferC1EP11wl_registryji@Qt_6 6.6.0
 _ZN9QtWayland16qt_server_bufferC1EP16qt_server_buffer@Qt_6 6.6.0
 _ZN9QtWayland16qt_server_bufferC1Ev@Qt_6 6.6.0
 _ZN9QtWayland16qt_server_bufferC2EP11wl_registryji@Qt_6 6.6.0
 _ZN9QtWayland16qt_server_bufferC2EP16qt_server_buffer@Qt_6 6.6.0
 _ZN9QtWayland16qt_server_bufferC2Ev@Qt_6 6.6.0
 _ZN9QtWayland16qt_server_bufferD0Ev@Qt_6 6.6.0
 _ZN9QtWayland16qt_server_bufferD1Ev@Qt_6 6.6.0
 _ZN9QtWayland16qt_server_bufferD2Ev@Qt_6 6.6.0
 _ZN9QtWayland16qt_windowmanager10fromObjectEP16qt_windowmanager@Qt_6 6.6.0
 _ZN9QtWayland16qt_windowmanager11handle_quitEPvP16qt_windowmanager@Qt_6 6.6.0
 _ZN9QtWayland16qt_windowmanager12handle_hintsEPvP16qt_windowmanageri@Qt_6 6.6.0
 _ZN9QtWayland16qt_windowmanager13init_listenerEv@Qt_6 6.6.0
 _ZN9QtWayland16qt_windowmanager18windowmanager_quitEv@Qt_6 6.6.0
 _ZN9QtWayland16qt_windowmanager19windowmanager_hintsEi@Qt_6 6.6.0
 _ZN9QtWayland16qt_windowmanager27m_qt_windowmanager_listenerE@Qt_6 6.6.0
 _ZN9QtWayland16qt_windowmanager4initEP11wl_registryji@Qt_6 6.6.0
 _ZN9QtWayland16qt_windowmanager4initEP16qt_windowmanager@Qt_6 6.6.0
 _ZN9QtWayland16qt_windowmanager8open_urlEjRK7QString@Qt_6 6.6.0
 _ZN9QtWayland16qt_windowmanager9interfaceEv@Qt_6 6.6.0
 _ZN9QtWayland16qt_windowmanagerC1EP11wl_registryji@Qt_6 6.6.0
 _ZN9QtWayland16qt_windowmanagerC1EP16qt_windowmanager@Qt_6 6.6.0
 _ZN9QtWayland16qt_windowmanagerC1Ev@Qt_6 6.6.0
 _ZN9QtWayland16qt_windowmanagerC2EP11wl_registryji@Qt_6 6.6.0
 _ZN9QtWayland16qt_windowmanagerC2EP16qt_windowmanager@Qt_6 6.6.0
 _ZN9QtWayland16qt_windowmanagerC2Ev@Qt_6 6.6.0
 _ZN9QtWayland16qt_windowmanagerD0Ev@Qt_6 6.6.0
 _ZN9QtWayland16qt_windowmanagerD1Ev@Qt_6 6.6.0
 _ZN9QtWayland16qt_windowmanagerD2Ev@Qt_6 6.6.0
 _ZN9QtWayland16wl_shell_surface10fromObjectEP16wl_shell_surface@Qt_6 6.6.0
 _ZN9QtWayland16wl_shell_surface11handle_pingEPvP16wl_shell_surfacej@Qt_6 6.6.0
 _ZN9QtWayland16wl_shell_surface12set_toplevelEv@Qt_6 6.6.0
 _ZN9QtWayland16wl_shell_surface13init_listenerEv@Qt_6 6.6.0
 _ZN9QtWayland16wl_shell_surface13set_maximizedEP9wl_output@Qt_6 6.6.0
 _ZN9QtWayland16wl_shell_surface13set_transientEP10wl_surfaceiij@Qt_6 6.6.0
 _ZN9QtWayland16wl_shell_surface14set_fullscreenEjjP9wl_output@Qt_6 6.6.0
 _ZN9QtWayland16wl_shell_surface16handle_configureEPvP16wl_shell_surfacejii@Qt_6 6.6.0
 _ZN9QtWayland16wl_shell_surface17handle_popup_doneEPvP16wl_shell_surface@Qt_6 6.6.0
 _ZN9QtWayland16wl_shell_surface18shell_surface_pingEj@Qt_6 6.6.0
 _ZN9QtWayland16wl_shell_surface23shell_surface_configureEjii@Qt_6 6.6.0
 _ZN9QtWayland16wl_shell_surface24shell_surface_popup_doneEv@Qt_6 6.6.0
 _ZN9QtWayland16wl_shell_surface27m_wl_shell_surface_listenerE@Qt_6 6.6.0
 _ZN9QtWayland16wl_shell_surface4initEP11wl_registryji@Qt_6 6.6.0
 _ZN9QtWayland16wl_shell_surface4initEP16wl_shell_surface@Qt_6 6.6.0
 _ZN9QtWayland16wl_shell_surface4moveEP7wl_seatj@Qt_6 6.6.0
 _ZN9QtWayland16wl_shell_surface4pongEj@Qt_6 6.6.0
 _ZN9QtWayland16wl_shell_surface6resizeEP7wl_seatjj@Qt_6 6.6.0
 _ZN9QtWayland16wl_shell_surface9interfaceEv@Qt_6 6.6.0
 _ZN9QtWayland16wl_shell_surface9set_classERK7QString@Qt_6 6.6.0
 _ZN9QtWayland16wl_shell_surface9set_popupEP7wl_seatjP10wl_surfaceiij@Qt_6 6.6.0
 _ZN9QtWayland16wl_shell_surface9set_titleERK7QString@Qt_6 6.6.0
 _ZN9QtWayland16wl_shell_surfaceC1EP11wl_registryji@Qt_6 6.6.0
 _ZN9QtWayland16wl_shell_surfaceC1EP16wl_shell_surface@Qt_6 6.6.0
 _ZN9QtWayland16wl_shell_surfaceC1Ev@Qt_6 6.6.0
 _ZN9QtWayland16wl_shell_surfaceC2EP11wl_registryji@Qt_6 6.6.0
 _ZN9QtWayland16wl_shell_surfaceC2EP16wl_shell_surface@Qt_6 6.6.0
 _ZN9QtWayland16wl_shell_surfaceC2Ev@Qt_6 6.6.0
 _ZN9QtWayland16wl_shell_surfaceD0Ev@Qt_6 6.6.0
 _ZN9QtWayland16wl_shell_surfaceD1Ev@Qt_6 6.6.0
 _ZN9QtWayland16wl_shell_surfaceD2Ev@Qt_6 6.6.0
 _ZN9QtWayland16wl_subcompositor10fromObjectEP16wl_subcompositor@Qt_6 6.6.0
 _ZN9QtWayland16wl_subcompositor14get_subsurfaceEP10wl_surfaceS2_@Qt_6 6.6.0
 _ZN9QtWayland16wl_subcompositor4initEP11wl_registryji@Qt_6 6.6.0
 _ZN9QtWayland16wl_subcompositor4initEP16wl_subcompositor@Qt_6 6.6.0
 _ZN9QtWayland16wl_subcompositor7destroyEv@Qt_6 6.6.0
 _ZN9QtWayland16wl_subcompositor9interfaceEv@Qt_6 6.6.0
 _ZN9QtWayland16wl_subcompositorC1EP11wl_registryji@Qt_6 6.6.0
 _ZN9QtWayland16wl_subcompositorC1EP16wl_subcompositor@Qt_6 6.6.0
 _ZN9QtWayland16wl_subcompositorC1Ev@Qt_6 6.6.0
 _ZN9QtWayland16wl_subcompositorC2EP11wl_registryji@Qt_6 6.6.0
 _ZN9QtWayland16wl_subcompositorC2EP16wl_subcompositor@Qt_6 6.6.0
 _ZN9QtWayland16wl_subcompositorC2Ev@Qt_6 6.6.0
 _ZN9QtWayland16wl_subcompositorD0Ev@Qt_6 6.6.0
 _ZN9QtWayland16wl_subcompositorD1Ev@Qt_6 6.6.0
 _ZN9QtWayland16wl_subcompositorD2Ev@Qt_6 6.6.0
 _ZN9QtWayland17zwp_tablet_pad_v210fromObjectEP17zwp_tablet_pad_v2@Qt_6 6.6.0
 _ZN9QtWayland17zwp_tablet_pad_v211handle_doneEPvP17zwp_tablet_pad_v2@Qt_6 6.6.0
 _ZN9QtWayland17zwp_tablet_pad_v211handle_pathEPvP17zwp_tablet_pad_v2PKc@Qt_6 6.6.0
 _ZN9QtWayland17zwp_tablet_pad_v212handle_enterEPvP17zwp_tablet_pad_v2jP13zwp_tablet_v2P10wl_surface@Qt_6 6.6.0
 _ZN9QtWayland17zwp_tablet_pad_v212handle_groupEPvP17zwp_tablet_pad_v2P23zwp_tablet_pad_group_v2@Qt_6 6.6.0
 _ZN9QtWayland17zwp_tablet_pad_v212handle_leaveEPvP17zwp_tablet_pad_v2jP10wl_surface@Qt_6 6.6.0
 _ZN9QtWayland17zwp_tablet_pad_v212set_feedbackEjRK7QStringj@Qt_6 6.6.0
 _ZN9QtWayland17zwp_tablet_pad_v213handle_buttonEPvP17zwp_tablet_pad_v2jjj@Qt_6 6.6.0
 _ZN9QtWayland17zwp_tablet_pad_v213init_listenerEv@Qt_6 6.6.0
 _ZN9QtWayland17zwp_tablet_pad_v214handle_buttonsEPvP17zwp_tablet_pad_v2j@Qt_6 6.6.0
 _ZN9QtWayland17zwp_tablet_pad_v214handle_removedEPvP17zwp_tablet_pad_v2@Qt_6 6.6.0
 _ZN9QtWayland17zwp_tablet_pad_v222zwp_tablet_pad_v2_doneEv@Qt_6 6.6.0
 _ZN9QtWayland17zwp_tablet_pad_v222zwp_tablet_pad_v2_pathERK7QString@Qt_6 6.6.0
 _ZN9QtWayland17zwp_tablet_pad_v223zwp_tablet_pad_v2_enterEjP13zwp_tablet_v2P10wl_surface@Qt_6 6.6.0
 _ZN9QtWayland17zwp_tablet_pad_v223zwp_tablet_pad_v2_groupEP23zwp_tablet_pad_group_v2@Qt_6 6.6.0
 _ZN9QtWayland17zwp_tablet_pad_v223zwp_tablet_pad_v2_leaveEjP10wl_surface@Qt_6 6.6.0
 _ZN9QtWayland17zwp_tablet_pad_v224zwp_tablet_pad_v2_buttonEjjj@Qt_6 6.6.0
 _ZN9QtWayland17zwp_tablet_pad_v225zwp_tablet_pad_v2_buttonsEj@Qt_6 6.6.0
 _ZN9QtWayland17zwp_tablet_pad_v225zwp_tablet_pad_v2_removedEv@Qt_6 6.6.0
 _ZN9QtWayland17zwp_tablet_pad_v228m_zwp_tablet_pad_v2_listenerE@Qt_6 6.6.0
 _ZN9QtWayland17zwp_tablet_pad_v24initEP11wl_registryji@Qt_6 6.6.0
 _ZN9QtWayland17zwp_tablet_pad_v24initEP17zwp_tablet_pad_v2@Qt_6 6.6.0
 _ZN9QtWayland17zwp_tablet_pad_v27destroyEv@Qt_6 6.6.0
 _ZN9QtWayland17zwp_tablet_pad_v29interfaceEv@Qt_6 6.6.0
 _ZN9QtWayland17zwp_tablet_pad_v2C1EP11wl_registryji@Qt_6 6.6.0
 _ZN9QtWayland17zwp_tablet_pad_v2C1EP17zwp_tablet_pad_v2@Qt_6 6.6.0
 _ZN9QtWayland17zwp_tablet_pad_v2C1Ev@Qt_6 6.6.0
 _ZN9QtWayland17zwp_tablet_pad_v2C2EP11wl_registryji@Qt_6 6.6.0
 _ZN9QtWayland17zwp_tablet_pad_v2C2EP17zwp_tablet_pad_v2@Qt_6 6.6.0
 _ZN9QtWayland17zwp_tablet_pad_v2C2Ev@Qt_6 6.6.0
 _ZN9QtWayland17zwp_tablet_pad_v2D0Ev@Qt_6 6.6.0
 _ZN9QtWayland17zwp_tablet_pad_v2D1Ev@Qt_6 6.6.0
 _ZN9QtWayland17zwp_tablet_pad_v2D2Ev@Qt_6 6.6.0
 _ZN9QtWayland17zwp_text_input_v110deactivateEP7wl_seat@Qt_6 6.6.0
 _ZN9QtWayland17zwp_text_input_v110fromObjectEP17zwp_text_input_v1@Qt_6 6.6.0
 _ZN9QtWayland17zwp_text_input_v112commit_stateEj@Qt_6 6.6.0
 _ZN9QtWayland17zwp_text_input_v112handle_enterEPvP17zwp_text_input_v1P10wl_surface@Qt_6 6.6.0
 _ZN9QtWayland17zwp_text_input_v112handle_leaveEPvP17zwp_text_input_v1@Qt_6 6.6.0
 _ZN9QtWayland17zwp_text_input_v113handle_keysymEPvP17zwp_text_input_v1jjjjj@Qt_6 6.6.0
 _ZN9QtWayland17zwp_text_input_v113init_listenerEv@Qt_6 6.6.0
 _ZN9QtWayland17zwp_text_input_v113invoke_actionEjj@Qt_6 6.6.0
 _ZN9QtWayland17zwp_text_input_v115handle_languageEPvP17zwp_text_input_v1jPKc@Qt_6 6.6.0
 _ZN9QtWayland17zwp_text_input_v116hide_input_panelEv@Qt_6 6.6.0
 _ZN9QtWayland17zwp_text_input_v116set_content_typeEjj@Qt_6 6.6.0
 _ZN9QtWayland17zwp_text_input_v116show_input_panelEv@Qt_6 6.6.0
 _ZN9QtWayland17zwp_text_input_v120handle_commit_stringEPvP17zwp_text_input_v1jPKc@Qt_6 6.6.0
 _ZN9QtWayland17zwp_text_input_v120handle_modifiers_mapEPvP17zwp_text_input_v1P8wl_array@Qt_6 6.6.0
 _ZN9QtWayland17zwp_text_input_v120set_cursor_rectangleEiiii@Qt_6 6.6.0
 _ZN9QtWayland17zwp_text_input_v120set_surrounding_textERK7QStringjj@Qt_6 6.6.0
 _ZN9QtWayland17zwp_text_input_v121handle_preedit_cursorEPvP17zwp_text_input_v1i@Qt_6 6.6.0
 _ZN9QtWayland17zwp_text_input_v121handle_preedit_stringEPvP17zwp_text_input_v1jPKcS5_@Qt_6 6.6.0
 _ZN9QtWayland17zwp_text_input_v121handle_text_directionEPvP17zwp_text_input_v1jj@Qt_6 6.6.0
 _ZN9QtWayland17zwp_text_input_v122handle_cursor_positionEPvP17zwp_text_input_v1ii@Qt_6 6.6.0
 _ZN9QtWayland17zwp_text_input_v122handle_preedit_stylingEPvP17zwp_text_input_v1jjj@Qt_6 6.6.0
 _ZN9QtWayland17zwp_text_input_v122set_preferred_languageERK7QString@Qt_6 6.6.0
 _ZN9QtWayland17zwp_text_input_v123zwp_text_input_v1_enterEP10wl_surface@Qt_6 6.6.0
 _ZN9QtWayland17zwp_text_input_v123zwp_text_input_v1_leaveEv@Qt_6 6.6.0
 _ZN9QtWayland17zwp_text_input_v124handle_input_panel_stateEPvP17zwp_text_input_v1j@Qt_6 6.6.0
 _ZN9QtWayland17zwp_text_input_v124zwp_text_input_v1_keysymEjjjjj@Qt_6 6.6.0
 _ZN9QtWayland17zwp_text_input_v126zwp_text_input_v1_languageEjRK7QString@Qt_6 6.6.0
 _ZN9QtWayland17zwp_text_input_v128m_zwp_text_input_v1_listenerE@Qt_6 6.6.0
 _ZN9QtWayland17zwp_text_input_v130handle_delete_surrounding_textEPvP17zwp_text_input_v1ij@Qt_6 6.6.0
 _ZN9QtWayland17zwp_text_input_v131zwp_text_input_v1_commit_stringEjRK7QString@Qt_6 6.6.0
 _ZN9QtWayland17zwp_text_input_v131zwp_text_input_v1_modifiers_mapEP8wl_array@Qt_6 6.6.0
 _ZN9QtWayland17zwp_text_input_v132zwp_text_input_v1_preedit_cursorEi@Qt_6 6.6.0
 _ZN9QtWayland17zwp_text_input_v132zwp_text_input_v1_preedit_stringEjRK7QStringS3_@Qt_6 6.6.0
 _ZN9QtWayland17zwp_text_input_v132zwp_text_input_v1_text_directionEjj@Qt_6 6.6.0
 _ZN9QtWayland17zwp_text_input_v133zwp_text_input_v1_cursor_positionEii@Qt_6 6.6.0
 _ZN9QtWayland17zwp_text_input_v133zwp_text_input_v1_preedit_stylingEjjj@Qt_6 6.6.0
 _ZN9QtWayland17zwp_text_input_v135zwp_text_input_v1_input_panel_stateEj@Qt_6 6.6.0
 _ZN9QtWayland17zwp_text_input_v141zwp_text_input_v1_delete_surrounding_textEij@Qt_6 6.6.0
 _ZN9QtWayland17zwp_text_input_v14initEP11wl_registryji@Qt_6 6.6.0
 _ZN9QtWayland17zwp_text_input_v14initEP17zwp_text_input_v1@Qt_6 6.6.0
 _ZN9QtWayland17zwp_text_input_v15resetEv@Qt_6 6.6.0
 _ZN9QtWayland17zwp_text_input_v18activateEP7wl_seatP10wl_surface@Qt_6 6.6.0
 _ZN9QtWayland17zwp_text_input_v19interfaceEv@Qt_6 6.6.0
 _ZN9QtWayland17zwp_text_input_v1C1EP11wl_registryji@Qt_6 6.6.0
 _ZN9QtWayland17zwp_text_input_v1C1EP17zwp_text_input_v1@Qt_6 6.6.0
 _ZN9QtWayland17zwp_text_input_v1C1Ev@Qt_6 6.6.0
 _ZN9QtWayland17zwp_text_input_v1C2EP11wl_registryji@Qt_6 6.6.0
 _ZN9QtWayland17zwp_text_input_v1C2EP17zwp_text_input_v1@Qt_6 6.6.0
 _ZN9QtWayland17zwp_text_input_v1C2Ev@Qt_6 6.6.0
 _ZN9QtWayland17zwp_text_input_v1D0Ev@Qt_6 6.6.0
 _ZN9QtWayland17zwp_text_input_v1D1Ev@Qt_6 6.6.0
 _ZN9QtWayland17zwp_text_input_v1D2Ev@Qt_6 6.6.0
 _ZN9QtWayland17zwp_text_input_v210fromObjectEP17zwp_text_input_v2@Qt_6 6.6.0
 _ZN9QtWayland17zwp_text_input_v212handle_enterEPvP17zwp_text_input_v2jP10wl_surface@Qt_6 6.6.0
 _ZN9QtWayland17zwp_text_input_v212handle_leaveEPvP17zwp_text_input_v2jP10wl_surface@Qt_6 6.6.0
 _ZN9QtWayland17zwp_text_input_v212update_stateEjj@Qt_6 6.6.0
 _ZN9QtWayland17zwp_text_input_v213handle_keysymEPvP17zwp_text_input_v2jjjj@Qt_6 6.6.0
 _ZN9QtWayland17zwp_text_input_v213init_listenerEv@Qt_6 6.6.0
 _ZN9QtWayland17zwp_text_input_v215handle_languageEPvP17zwp_text_input_v2PKc@Qt_6 6.6.0
 _ZN9QtWayland17zwp_text_input_v216hide_input_panelEv@Qt_6 6.6.0
 _ZN9QtWayland17zwp_text_input_v216set_content_typeEjj@Qt_6 6.6.0
 _ZN9QtWayland17zwp_text_input_v216show_input_panelEv@Qt_6 6.6.0
 _ZN9QtWayland17zwp_text_input_v220handle_commit_stringEPvP17zwp_text_input_v2PKc@Qt_6 6.6.0
 _ZN9QtWayland17zwp_text_input_v220handle_modifiers_mapEPvP17zwp_text_input_v2P8wl_array@Qt_6 6.6.0
 _ZN9QtWayland17zwp_text_input_v220set_cursor_rectangleEiiii@Qt_6 6.6.0
 _ZN9QtWayland17zwp_text_input_v220set_surrounding_textERK7QStringii@Qt_6 6.6.0
 _ZN9QtWayland17zwp_text_input_v221handle_preedit_cursorEPvP17zwp_text_input_v2i@Qt_6 6.6.0
 _ZN9QtWayland17zwp_text_input_v221handle_preedit_stringEPvP17zwp_text_input_v2PKcS5_@Qt_6 6.6.0
 _ZN9QtWayland17zwp_text_input_v221handle_text_directionEPvP17zwp_text_input_v2j@Qt_6 6.6.0
 _ZN9QtWayland17zwp_text_input_v222handle_cursor_positionEPvP17zwp_text_input_v2ii@Qt_6 6.6.0
 _ZN9QtWayland17zwp_text_input_v222handle_preedit_stylingEPvP17zwp_text_input_v2jjj@Qt_6 6.6.0
 _ZN9QtWayland17zwp_text_input_v222set_preferred_languageERK7QString@Qt_6 6.6.0
 _ZN9QtWayland17zwp_text_input_v223zwp_text_input_v2_enterEjP10wl_surface@Qt_6 6.6.0
 _ZN9QtWayland17zwp_text_input_v223zwp_text_input_v2_leaveEjP10wl_surface@Qt_6 6.6.0
 _ZN9QtWayland17zwp_text_input_v224handle_input_panel_stateEPvP17zwp_text_input_v2jiiii@Qt_6 6.6.0
 _ZN9QtWayland17zwp_text_input_v224zwp_text_input_v2_keysymEjjjj@Qt_6 6.6.0
 _ZN9QtWayland17zwp_text_input_v226zwp_text_input_v2_languageERK7QString@Qt_6 6.6.0
 _ZN9QtWayland17zwp_text_input_v227handle_input_method_changedEPvP17zwp_text_input_v2jj@Qt_6 6.6.0
 _ZN9QtWayland17zwp_text_input_v228m_zwp_text_input_v2_listenerE@Qt_6 6.6.0
 _ZN9QtWayland17zwp_text_input_v230handle_delete_surrounding_textEPvP17zwp_text_input_v2jj@Qt_6 6.6.0
 _ZN9QtWayland17zwp_text_input_v231zwp_text_input_v2_commit_stringERK7QString@Qt_6 6.6.0
 _ZN9QtWayland17zwp_text_input_v231zwp_text_input_v2_modifiers_mapEP8wl_array@Qt_6 6.6.0
 _ZN9QtWayland17zwp_text_input_v232zwp_text_input_v2_preedit_cursorEi@Qt_6 6.6.0
 _ZN9QtWayland17zwp_text_input_v232zwp_text_input_v2_preedit_stringERK7QStringS3_@Qt_6 6.6.0
 _ZN9QtWayland17zwp_text_input_v232zwp_text_input_v2_text_directionEj@Qt_6 6.6.0
 _ZN9QtWayland17zwp_text_input_v233handle_configure_surrounding_textEPvP17zwp_text_input_v2ii@Qt_6 6.6.0
 _ZN9QtWayland17zwp_text_input_v233zwp_text_input_v2_cursor_positionEii@Qt_6 6.6.0
 _ZN9QtWayland17zwp_text_input_v233zwp_text_input_v2_preedit_stylingEjjj@Qt_6 6.6.0
 _ZN9QtWayland17zwp_text_input_v235zwp_text_input_v2_input_panel_stateEjiiii@Qt_6 6.6.0
 _ZN9QtWayland17zwp_text_input_v238zwp_text_input_v2_input_method_changedEjj@Qt_6 6.6.0
 _ZN9QtWayland17zwp_text_input_v241zwp_text_input_v2_delete_surrounding_textEjj@Qt_6 6.6.0
 _ZN9QtWayland17zwp_text_input_v244zwp_text_input_v2_configure_surrounding_textEii@Qt_6 6.6.0
 _ZN9QtWayland17zwp_text_input_v24initEP11wl_registryji@Qt_6 6.6.0
 _ZN9QtWayland17zwp_text_input_v24initEP17zwp_text_input_v2@Qt_6 6.6.0
 _ZN9QtWayland17zwp_text_input_v26enableEP10wl_surface@Qt_6 6.6.0
 _ZN9QtWayland17zwp_text_input_v27destroyEv@Qt_6 6.6.0
 _ZN9QtWayland17zwp_text_input_v27disableEP10wl_surface@Qt_6 6.6.0
 _ZN9QtWayland17zwp_text_input_v29interfaceEv@Qt_6 6.6.0
 _ZN9QtWayland17zwp_text_input_v2C1EP11wl_registryji@Qt_6 6.6.0
 _ZN9QtWayland17zwp_text_input_v2C1EP17zwp_text_input_v2@Qt_6 6.6.0
 _ZN9QtWayland17zwp_text_input_v2C1Ev@Qt_6 6.6.0
 _ZN9QtWayland17zwp_text_input_v2C2EP11wl_registryji@Qt_6 6.6.0
 _ZN9QtWayland17zwp_text_input_v2C2EP17zwp_text_input_v2@Qt_6 6.6.0
 _ZN9QtWayland17zwp_text_input_v2C2Ev@Qt_6 6.6.0
 _ZN9QtWayland17zwp_text_input_v2D0Ev@Qt_6 6.6.0
 _ZN9QtWayland17zwp_text_input_v2D1Ev@Qt_6 6.6.0
 _ZN9QtWayland17zwp_text_input_v2D2Ev@Qt_6 6.6.0
 _ZN9QtWayland17zwp_text_input_v310fromObjectEP17zwp_text_input_v3@Qt_6 6.7.2
 _ZN9QtWayland17zwp_text_input_v311handle_doneEPvP17zwp_text_input_v3j@Qt_6 6.7.2
 _ZN9QtWayland17zwp_text_input_v312handle_enterEPvP17zwp_text_input_v3P10wl_surface@Qt_6 6.7.2
 _ZN9QtWayland17zwp_text_input_v312handle_leaveEPvP17zwp_text_input_v3P10wl_surface@Qt_6 6.7.2
 _ZN9QtWayland17zwp_text_input_v313init_listenerEv@Qt_6 6.7.2
 _ZN9QtWayland17zwp_text_input_v316set_content_typeEjj@Qt_6 6.7.2
 _ZN9QtWayland17zwp_text_input_v320handle_commit_stringEPvP17zwp_text_input_v3PKc@Qt_6 6.7.2
 _ZN9QtWayland17zwp_text_input_v320set_cursor_rectangleEiiii@Qt_6 6.7.2
 _ZN9QtWayland17zwp_text_input_v320set_surrounding_textERK7QStringii@Qt_6 6.7.2
 _ZN9QtWayland17zwp_text_input_v321handle_preedit_stringEPvP17zwp_text_input_v3PKcii@Qt_6 6.7.2
 _ZN9QtWayland17zwp_text_input_v321set_text_change_causeEj@Qt_6 6.7.2
 _ZN9QtWayland17zwp_text_input_v322zwp_text_input_v3_doneEj@Qt_6 6.7.2
 _ZN9QtWayland17zwp_text_input_v323zwp_text_input_v3_enterEP10wl_surface@Qt_6 6.7.2
 _ZN9QtWayland17zwp_text_input_v323zwp_text_input_v3_leaveEP10wl_surface@Qt_6 6.7.2
 _ZN9QtWayland17zwp_text_input_v328m_zwp_text_input_v3_listenerE@Qt_6 6.7.2
 _ZN9QtWayland17zwp_text_input_v330handle_delete_surrounding_textEPvP17zwp_text_input_v3jj@Qt_6 6.7.2
 _ZN9QtWayland17zwp_text_input_v331zwp_text_input_v3_commit_stringERK7QString@Qt_6 6.7.2
 _ZN9QtWayland17zwp_text_input_v332zwp_text_input_v3_preedit_stringERK7QStringii@Qt_6 6.7.2
 _ZN9QtWayland17zwp_text_input_v341zwp_text_input_v3_delete_surrounding_textEjj@Qt_6 6.7.2
 _ZN9QtWayland17zwp_text_input_v34initEP11wl_registryji@Qt_6 6.7.2
 _ZN9QtWayland17zwp_text_input_v34initEP17zwp_text_input_v3@Qt_6 6.7.2
 _ZN9QtWayland17zwp_text_input_v36commitEv@Qt_6 6.7.2
 _ZN9QtWayland17zwp_text_input_v36enableEv@Qt_6 6.7.2
 _ZN9QtWayland17zwp_text_input_v37destroyEv@Qt_6 6.7.2
 _ZN9QtWayland17zwp_text_input_v37disableEv@Qt_6 6.7.2
 _ZN9QtWayland17zwp_text_input_v39interfaceEv@Qt_6 6.7.2
 _ZN9QtWayland17zwp_text_input_v3C1EP11wl_registryji@Qt_6 6.7.2
 _ZN9QtWayland17zwp_text_input_v3C1EP17zwp_text_input_v3@Qt_6 6.7.2
 _ZN9QtWayland17zwp_text_input_v3C1Ev@Qt_6 6.7.2
 _ZN9QtWayland17zwp_text_input_v3C2EP11wl_registryji@Qt_6 6.7.2
 _ZN9QtWayland17zwp_text_input_v3C2EP17zwp_text_input_v3@Qt_6 6.7.2
 _ZN9QtWayland17zwp_text_input_v3C2Ev@Qt_6 6.7.2
 _ZN9QtWayland17zwp_text_input_v3D0Ev@Qt_6 6.7.2
 _ZN9QtWayland17zwp_text_input_v3D1Ev@Qt_6 6.7.2
 _ZN9QtWayland17zwp_text_input_v3D2Ev@Qt_6 6.7.2
 _ZN9QtWayland18qt_touch_extension10fromObjectEP18qt_touch_extension@Qt_6 6.6.0
 _ZN9QtWayland18qt_touch_extension12handle_touchEPvP18qt_touch_extensionjjjiiiiiijiijP8wl_array@Qt_6 6.6.0
 _ZN9QtWayland18qt_touch_extension13init_listenerEv@Qt_6 6.6.0
 _ZN9QtWayland18qt_touch_extension16handle_configureEPvP18qt_touch_extensionj@Qt_6 6.6.0
 _ZN9QtWayland18qt_touch_extension21touch_extension_touchEjjjiiiiiijiijP8wl_array@Qt_6 6.6.0
 _ZN9QtWayland18qt_touch_extension25touch_extension_configureEj@Qt_6 6.6.0
 _ZN9QtWayland18qt_touch_extension29m_qt_touch_extension_listenerE@Qt_6 6.6.0
 _ZN9QtWayland18qt_touch_extension4initEP11wl_registryji@Qt_6 6.6.0
 _ZN9QtWayland18qt_touch_extension4initEP18qt_touch_extension@Qt_6 6.6.0
 _ZN9QtWayland18qt_touch_extension5dummyEv@Qt_6 6.6.0
 _ZN9QtWayland18qt_touch_extension9interfaceEv@Qt_6 6.6.0
 _ZN9QtWayland18qt_touch_extensionC1EP11wl_registryji@Qt_6 6.6.0
 _ZN9QtWayland18qt_touch_extensionC1EP18qt_touch_extension@Qt_6 6.6.0
 _ZN9QtWayland18qt_touch_extensionC1Ev@Qt_6 6.6.0
 _ZN9QtWayland18qt_touch_extensionC2EP11wl_registryji@Qt_6 6.6.0
 _ZN9QtWayland18qt_touch_extensionC2EP18qt_touch_extension@Qt_6 6.6.0
 _ZN9QtWayland18qt_touch_extensionC2Ev@Qt_6 6.6.0
 _ZN9QtWayland18qt_touch_extensionD0Ev@Qt_6 6.6.0
 _ZN9QtWayland18qt_touch_extensionD1Ev@Qt_6 6.6.0
 _ZN9QtWayland18qt_touch_extensionD2Ev@Qt_6 6.6.0
 _ZN9QtWayland18zwp_tablet_seat_v210fromObjectEP18zwp_tablet_seat_v2@Qt_6 6.6.0
 _ZN9QtWayland18zwp_tablet_seat_v213init_listenerEv@Qt_6 6.6.0
 _ZN9QtWayland18zwp_tablet_seat_v216handle_pad_addedEPvP18zwp_tablet_seat_v2P17zwp_tablet_pad_v2@Qt_6 6.6.0
 _ZN9QtWayland18zwp_tablet_seat_v217handle_tool_addedEPvP18zwp_tablet_seat_v2P18zwp_tablet_tool_v2@Qt_6 6.6.0
 _ZN9QtWayland18zwp_tablet_seat_v219handle_tablet_addedEPvP18zwp_tablet_seat_v2P13zwp_tablet_v2@Qt_6 6.6.0
 _ZN9QtWayland18zwp_tablet_seat_v228zwp_tablet_seat_v2_pad_addedEP17zwp_tablet_pad_v2@Qt_6 6.6.0
 _ZN9QtWayland18zwp_tablet_seat_v229m_zwp_tablet_seat_v2_listenerE@Qt_6 6.6.0
 _ZN9QtWayland18zwp_tablet_seat_v229zwp_tablet_seat_v2_tool_addedEP18zwp_tablet_tool_v2@Qt_6 6.6.0
 _ZN9QtWayland18zwp_tablet_seat_v231zwp_tablet_seat_v2_tablet_addedEP13zwp_tablet_v2@Qt_6 6.6.0
 _ZN9QtWayland18zwp_tablet_seat_v24initEP11wl_registryji@Qt_6 6.6.0
 _ZN9QtWayland18zwp_tablet_seat_v24initEP18zwp_tablet_seat_v2@Qt_6 6.6.0
 _ZN9QtWayland18zwp_tablet_seat_v27destroyEv@Qt_6 6.6.0
 _ZN9QtWayland18zwp_tablet_seat_v29interfaceEv@Qt_6 6.6.0
 _ZN9QtWayland18zwp_tablet_seat_v2C1EP11wl_registryji@Qt_6 6.6.0
 _ZN9QtWayland18zwp_tablet_seat_v2C1EP18zwp_tablet_seat_v2@Qt_6 6.6.0
 _ZN9QtWayland18zwp_tablet_seat_v2C1Ev@Qt_6 6.6.0
 _ZN9QtWayland18zwp_tablet_seat_v2C2EP11wl_registryji@Qt_6 6.6.0
 _ZN9QtWayland18zwp_tablet_seat_v2C2EP18zwp_tablet_seat_v2@Qt_6 6.6.0
 _ZN9QtWayland18zwp_tablet_seat_v2C2Ev@Qt_6 6.6.0
 _ZN9QtWayland18zwp_tablet_seat_v2D0Ev@Qt_6 6.6.0
 _ZN9QtWayland18zwp_tablet_seat_v2D1Ev@Qt_6 6.6.0
 _ZN9QtWayland18zwp_tablet_seat_v2D2Ev@Qt_6 6.6.0
 _ZN9QtWayland18zwp_tablet_tool_v210fromObjectEP18zwp_tablet_tool_v2@Qt_6 6.6.0
 _ZN9QtWayland18zwp_tablet_tool_v210set_cursorEjP10wl_surfaceii@Qt_6 6.6.0
 _ZN9QtWayland18zwp_tablet_tool_v211handle_doneEPvP18zwp_tablet_tool_v2@Qt_6 6.6.0
 _ZN9QtWayland18zwp_tablet_tool_v211handle_downEPvP18zwp_tablet_tool_v2j@Qt_6 6.6.0
 _ZN9QtWayland18zwp_tablet_tool_v211handle_tiltEPvP18zwp_tablet_tool_v2ii@Qt_6 6.6.0
 _ZN9QtWayland18zwp_tablet_tool_v211handle_typeEPvP18zwp_tablet_tool_v2j@Qt_6 6.6.0
 _ZN9QtWayland18zwp_tablet_tool_v212handle_frameEPvP18zwp_tablet_tool_v2j@Qt_6 6.6.0
 _ZN9QtWayland18zwp_tablet_tool_v212handle_wheelEPvP18zwp_tablet_tool_v2ii@Qt_6 6.6.0
 _ZN9QtWayland18zwp_tablet_tool_v213handle_buttonEPvP18zwp_tablet_tool_v2jjj@Qt_6 6.6.0
 _ZN9QtWayland18zwp_tablet_tool_v213handle_motionEPvP18zwp_tablet_tool_v2ii@Qt_6 6.6.0
 _ZN9QtWayland18zwp_tablet_tool_v213handle_sliderEPvP18zwp_tablet_tool_v2i@Qt_6 6.6.0
 _ZN9QtWayland18zwp_tablet_tool_v213init_listenerEv@Qt_6 6.6.0
 _ZN9QtWayland18zwp_tablet_tool_v214handle_removedEPvP18zwp_tablet_tool_v2@Qt_6 6.6.0
 _ZN9QtWayland18zwp_tablet_tool_v215handle_distanceEPvP18zwp_tablet_tool_v2j@Qt_6 6.6.0
 _ZN9QtWayland18zwp_tablet_tool_v215handle_pressureEPvP18zwp_tablet_tool_v2j@Qt_6 6.6.0
 _ZN9QtWayland18zwp_tablet_tool_v215handle_rotationEPvP18zwp_tablet_tool_v2i@Qt_6 6.6.0
 _ZN9QtWayland18zwp_tablet_tool_v217handle_capabilityEPvP18zwp_tablet_tool_v2j@Qt_6 6.6.0
 _ZN9QtWayland18zwp_tablet_tool_v219handle_proximity_inEPvP18zwp_tablet_tool_v2jP13zwp_tablet_v2P10wl_surface@Qt_6 6.6.0
 _ZN9QtWayland18zwp_tablet_tool_v220handle_proximity_outEPvP18zwp_tablet_tool_v2@Qt_6 6.6.0
 _ZN9QtWayland18zwp_tablet_tool_v221zwp_tablet_tool_v2_upEv@Qt_6 6.6.0
 _ZN9QtWayland18zwp_tablet_tool_v222handle_hardware_serialEPvP18zwp_tablet_tool_v2jj@Qt_6 6.6.0
 _ZN9QtWayland18zwp_tablet_tool_v223zwp_tablet_tool_v2_doneEv@Qt_6 6.6.0
 _ZN9QtWayland18zwp_tablet_tool_v223zwp_tablet_tool_v2_downEj@Qt_6 6.6.0
 _ZN9QtWayland18zwp_tablet_tool_v223zwp_tablet_tool_v2_tiltEii@Qt_6 6.6.0
 _ZN9QtWayland18zwp_tablet_tool_v223zwp_tablet_tool_v2_typeEj@Qt_6 6.6.0
 _ZN9QtWayland18zwp_tablet_tool_v224handle_hardware_id_wacomEPvP18zwp_tablet_tool_v2jj@Qt_6 6.6.0
 _ZN9QtWayland18zwp_tablet_tool_v224zwp_tablet_tool_v2_frameEj@Qt_6 6.6.0
 _ZN9QtWayland18zwp_tablet_tool_v224zwp_tablet_tool_v2_wheelEii@Qt_6 6.6.0
 _ZN9QtWayland18zwp_tablet_tool_v225zwp_tablet_tool_v2_buttonEjjj@Qt_6 6.6.0
 _ZN9QtWayland18zwp_tablet_tool_v225zwp_tablet_tool_v2_motionEii@Qt_6 6.6.0
 _ZN9QtWayland18zwp_tablet_tool_v225zwp_tablet_tool_v2_sliderEi@Qt_6 6.6.0
 _ZN9QtWayland18zwp_tablet_tool_v226zwp_tablet_tool_v2_removedEv@Qt_6 6.6.0
 _ZN9QtWayland18zwp_tablet_tool_v227zwp_tablet_tool_v2_distanceEj@Qt_6 6.6.0
 _ZN9QtWayland18zwp_tablet_tool_v227zwp_tablet_tool_v2_pressureEj@Qt_6 6.6.0
 _ZN9QtWayland18zwp_tablet_tool_v227zwp_tablet_tool_v2_rotationEi@Qt_6 6.6.0
 _ZN9QtWayland18zwp_tablet_tool_v229m_zwp_tablet_tool_v2_listenerE@Qt_6 6.6.0
 _ZN9QtWayland18zwp_tablet_tool_v229zwp_tablet_tool_v2_capabilityEj@Qt_6 6.6.0
 _ZN9QtWayland18zwp_tablet_tool_v231zwp_tablet_tool_v2_proximity_inEjP13zwp_tablet_v2P10wl_surface@Qt_6 6.6.0
 _ZN9QtWayland18zwp_tablet_tool_v232zwp_tablet_tool_v2_proximity_outEv@Qt_6 6.6.0
 _ZN9QtWayland18zwp_tablet_tool_v234zwp_tablet_tool_v2_hardware_serialEjj@Qt_6 6.6.0
 _ZN9QtWayland18zwp_tablet_tool_v236zwp_tablet_tool_v2_hardware_id_wacomEjj@Qt_6 6.6.0
 _ZN9QtWayland18zwp_tablet_tool_v24initEP11wl_registryji@Qt_6 6.6.0
 _ZN9QtWayland18zwp_tablet_tool_v24initEP18zwp_tablet_tool_v2@Qt_6 6.6.0
 _ZN9QtWayland18zwp_tablet_tool_v27destroyEv@Qt_6 6.6.0
 _ZN9QtWayland18zwp_tablet_tool_v29handle_upEPvP18zwp_tablet_tool_v2@Qt_6 6.6.0
 _ZN9QtWayland18zwp_tablet_tool_v29interfaceEv@Qt_6 6.6.0
 _ZN9QtWayland18zwp_tablet_tool_v2C1EP11wl_registryji@Qt_6 6.6.0
 _ZN9QtWayland18zwp_tablet_tool_v2C1EP18zwp_tablet_tool_v2@Qt_6 6.6.0
 _ZN9QtWayland18zwp_tablet_tool_v2C1Ev@Qt_6 6.6.0
 _ZN9QtWayland18zwp_tablet_tool_v2C2EP11wl_registryji@Qt_6 6.6.0
 _ZN9QtWayland18zwp_tablet_tool_v2C2EP18zwp_tablet_tool_v2@Qt_6 6.6.0
 _ZN9QtWayland18zwp_tablet_tool_v2C2Ev@Qt_6 6.6.0
 _ZN9QtWayland18zwp_tablet_tool_v2D0Ev@Qt_6 6.6.0
 _ZN9QtWayland18zwp_tablet_tool_v2D1Ev@Qt_6 6.6.0
 _ZN9QtWayland18zwp_tablet_tool_v2D2Ev@Qt_6 6.6.0
 _ZN9QtWayland19qt_extended_surface10fromObjectEP19qt_extended_surface@Qt_6 6.6.0
 _ZN9QtWayland19qt_extended_surface12handle_closeEPvP19qt_extended_surface@Qt_6 6.6.0
 _ZN9QtWayland19qt_extended_surface13init_listenerEv@Qt_6 6.6.0
 _ZN9QtWayland19qt_extended_surface16set_window_flagsEi@Qt_6 6.6.0
 _ZN9QtWayland19qt_extended_surface22extended_surface_closeEv@Qt_6 6.6.0
 _ZN9QtWayland19qt_extended_surface23update_generic_propertyERK7QStringRK10QByteArray@Qt_6 6.6.0
 _ZN9QtWayland19qt_extended_surface26handle_onscreen_visibilityEPvP19qt_extended_surfacei@Qt_6 6.6.0
 _ZN9QtWayland19qt_extended_surface27handle_set_generic_propertyEPvP19qt_extended_surfacePKcP8wl_array@Qt_6 6.6.0
 _ZN9QtWayland19qt_extended_surface28set_content_orientation_maskEi@Qt_6 6.6.0
 _ZN9QtWayland19qt_extended_surface30m_qt_extended_surface_listenerE@Qt_6 6.6.0
 _ZN9QtWayland19qt_extended_surface36extended_surface_onscreen_visibilityEi@Qt_6 6.6.0
 _ZN9QtWayland19qt_extended_surface37extended_surface_set_generic_propertyERK7QStringP8wl_array@Qt_6 6.6.0
 _ZN9QtWayland19qt_extended_surface4initEP11wl_registryji@Qt_6 6.6.0
 _ZN9QtWayland19qt_extended_surface4initEP19qt_extended_surface@Qt_6 6.6.0
 _ZN9QtWayland19qt_extended_surface5lowerEv@Qt_6 6.6.0
 _ZN9QtWayland19qt_extended_surface5raiseEv@Qt_6 6.6.0
 _ZN9QtWayland19qt_extended_surface9interfaceEv@Qt_6 6.6.0
 _ZN9QtWayland19qt_extended_surfaceC1EP11wl_registryji@Qt_6 6.6.0
 _ZN9QtWayland19qt_extended_surfaceC1EP19qt_extended_surface@Qt_6 6.6.0
 _ZN9QtWayland19qt_extended_surfaceC1Ev@Qt_6 6.6.0
 _ZN9QtWayland19qt_extended_surfaceC2EP11wl_registryji@Qt_6 6.6.0
 _ZN9QtWayland19qt_extended_surfaceC2EP19qt_extended_surface@Qt_6 6.6.0
 _ZN9QtWayland19qt_extended_surfaceC2Ev@Qt_6 6.6.0
 _ZN9QtWayland19qt_extended_surfaceD0Ev@Qt_6 6.6.0
 _ZN9QtWayland19qt_extended_surfaceD1Ev@Qt_6 6.6.0
 _ZN9QtWayland19qt_extended_surfaceD2Ev@Qt_6 6.6.0
 _ZN9QtWayland20qt_surface_extension10fromObjectEP20qt_surface_extension@Qt_6 6.6.0
 _ZN9QtWayland20qt_surface_extension20get_extended_surfaceEP10wl_surface@Qt_6 6.6.0
 _ZN9QtWayland20qt_surface_extension4initEP11wl_registryji@Qt_6 6.6.0
 _ZN9QtWayland20qt_surface_extension4initEP20qt_surface_extension@Qt_6 6.6.0
 _ZN9QtWayland20qt_surface_extension9interfaceEv@Qt_6 6.6.0
 _ZN9QtWayland20qt_surface_extensionC1EP11wl_registryji@Qt_6 6.6.0
 _ZN9QtWayland20qt_surface_extensionC1EP20qt_surface_extension@Qt_6 6.6.0
 _ZN9QtWayland20qt_surface_extensionC1Ev@Qt_6 6.6.0
 _ZN9QtWayland20qt_surface_extensionC2EP11wl_registryji@Qt_6 6.6.0
 _ZN9QtWayland20qt_surface_extensionC2EP20qt_surface_extension@Qt_6 6.6.0
 _ZN9QtWayland20qt_surface_extensionC2Ev@Qt_6 6.6.0
 _ZN9QtWayland20qt_surface_extensionD0Ev@Qt_6 6.6.0
 _ZN9QtWayland20qt_surface_extensionD1Ev@Qt_6 6.6.0
 _ZN9QtWayland20qt_surface_extensionD2Ev@Qt_6 6.6.0
 _ZN9QtWayland20xdg_toplevel_drag_v110fromObjectEP20xdg_toplevel_drag_v1@Qt_6 6.7.2
 _ZN9QtWayland20xdg_toplevel_drag_v14initEP11wl_registryji@Qt_6 6.7.2
 _ZN9QtWayland20xdg_toplevel_drag_v14initEP20xdg_toplevel_drag_v1@Qt_6 6.7.2
 _ZN9QtWayland20xdg_toplevel_drag_v16attachEP12xdg_toplevelii@Qt_6 6.7.2
 _ZN9QtWayland20xdg_toplevel_drag_v17destroyEv@Qt_6 6.7.2
 _ZN9QtWayland20xdg_toplevel_drag_v19interfaceEv@Qt_6 6.7.2
 _ZN9QtWayland20xdg_toplevel_drag_v1C1EP11wl_registryji@Qt_6 6.7.2
 _ZN9QtWayland20xdg_toplevel_drag_v1C1EP20xdg_toplevel_drag_v1@Qt_6 6.7.2
 _ZN9QtWayland20xdg_toplevel_drag_v1C1Ev@Qt_6 6.7.2
 _ZN9QtWayland20xdg_toplevel_drag_v1C2EP11wl_registryji@Qt_6 6.7.2
 _ZN9QtWayland20xdg_toplevel_drag_v1C2EP20xdg_toplevel_drag_v1@Qt_6 6.7.2
 _ZN9QtWayland20xdg_toplevel_drag_v1C2Ev@Qt_6 6.7.2
 _ZN9QtWayland20xdg_toplevel_drag_v1D0Ev@Qt_6 6.7.2
 _ZN9QtWayland20xdg_toplevel_drag_v1D1Ev@Qt_6 6.7.2
 _ZN9QtWayland20xdg_toplevel_drag_v1D2Ev@Qt_6 6.7.2
 _ZN9QtWayland21zwp_tablet_manager_v210fromObjectEP21zwp_tablet_manager_v2@Qt_6 6.6.0
 _ZN9QtWayland21zwp_tablet_manager_v215get_tablet_seatEP7wl_seat@Qt_6 6.6.0
 _ZN9QtWayland21zwp_tablet_manager_v24initEP11wl_registryji@Qt_6 6.6.0
 _ZN9QtWayland21zwp_tablet_manager_v24initEP21zwp_tablet_manager_v2@Qt_6 6.6.0
 _ZN9QtWayland21zwp_tablet_manager_v27destroyEv@Qt_6 6.6.0
 _ZN9QtWayland21zwp_tablet_manager_v29interfaceEv@Qt_6 6.6.0
 _ZN9QtWayland21zwp_tablet_manager_v2C1EP11wl_registryji@Qt_6 6.6.0
 _ZN9QtWayland21zwp_tablet_manager_v2C1EP21zwp_tablet_manager_v2@Qt_6 6.6.0
 _ZN9QtWayland21zwp_tablet_manager_v2C1Ev@Qt_6 6.6.0
 _ZN9QtWayland21zwp_tablet_manager_v2C2EP11wl_registryji@Qt_6 6.6.0
 _ZN9QtWayland21zwp_tablet_manager_v2C2EP21zwp_tablet_manager_v2@Qt_6 6.6.0
 _ZN9QtWayland21zwp_tablet_manager_v2C2Ev@Qt_6 6.6.0
 _ZN9QtWayland21zwp_tablet_manager_v2D0Ev@Qt_6 6.6.0
 _ZN9QtWayland21zwp_tablet_manager_v2D1Ev@Qt_6 6.6.0
 _ZN9QtWayland21zwp_tablet_manager_v2D2Ev@Qt_6 6.6.0
 _ZN9QtWayland22wl_data_device_manager10fromObjectEP22wl_data_device_manager@Qt_6 6.6.0
 _ZN9QtWayland22wl_data_device_manager15get_data_deviceEP7wl_seat@Qt_6 6.6.0
 _ZN9QtWayland22wl_data_device_manager18create_data_sourceEv@Qt_6 6.6.0
 _ZN9QtWayland22wl_data_device_manager4initEP11wl_registryji@Qt_6 6.6.0
 _ZN9QtWayland22wl_data_device_manager4initEP22wl_data_device_manager@Qt_6 6.6.0
 _ZN9QtWayland22wl_data_device_manager9interfaceEv@Qt_6 6.6.0
 _ZN9QtWayland22wl_data_device_managerC1EP11wl_registryji@Qt_6 6.6.0
 _ZN9QtWayland22wl_data_device_managerC1EP22wl_data_device_manager@Qt_6 6.6.0
 _ZN9QtWayland22wl_data_device_managerC1Ev@Qt_6 6.6.0
 _ZN9QtWayland22wl_data_device_managerC2EP11wl_registryji@Qt_6 6.6.0
 _ZN9QtWayland22wl_data_device_managerC2EP22wl_data_device_manager@Qt_6 6.6.0
 _ZN9QtWayland22wl_data_device_managerC2Ev@Qt_6 6.6.0
 _ZN9QtWayland22wl_data_device_managerD0Ev@Qt_6 6.6.0
 _ZN9QtWayland22wl_data_device_managerD1Ev@Qt_6 6.6.0
 _ZN9QtWayland22wl_data_device_managerD2Ev@Qt_6 6.6.0
 _ZN9QtWayland22wp_fractional_scale_v110fromObjectEP22wp_fractional_scale_v1@Qt_6 6.6.0
 _ZN9QtWayland22wp_fractional_scale_v113init_listenerEv@Qt_6 6.6.0
 _ZN9QtWayland22wp_fractional_scale_v122handle_preferred_scaleEPvP22wp_fractional_scale_v1j@Qt_6 6.6.0
 _ZN9QtWayland22wp_fractional_scale_v133m_wp_fractional_scale_v1_listenerE@Qt_6 6.6.0
 _ZN9QtWayland22wp_fractional_scale_v138wp_fractional_scale_v1_preferred_scaleEj@Qt_6 6.6.0
 _ZN9QtWayland22wp_fractional_scale_v14initEP11wl_registryji@Qt_6 6.6.0
 _ZN9QtWayland22wp_fractional_scale_v14initEP22wp_fractional_scale_v1@Qt_6 6.6.0
 _ZN9QtWayland22wp_fractional_scale_v17destroyEv@Qt_6 6.6.0
 _ZN9QtWayland22wp_fractional_scale_v19interfaceEv@Qt_6 6.6.0
 _ZN9QtWayland22wp_fractional_scale_v1C1EP11wl_registryji@Qt_6 6.6.0
 _ZN9QtWayland22wp_fractional_scale_v1C1EP22wp_fractional_scale_v1@Qt_6 6.6.0
 _ZN9QtWayland22wp_fractional_scale_v1C1Ev@Qt_6 6.6.0
 _ZN9QtWayland22wp_fractional_scale_v1C2EP11wl_registryji@Qt_6 6.6.0
 _ZN9QtWayland22wp_fractional_scale_v1C2EP22wp_fractional_scale_v1@Qt_6 6.6.0
 _ZN9QtWayland22wp_fractional_scale_v1C2Ev@Qt_6 6.6.0
 _ZN9QtWayland22wp_fractional_scale_v1D0Ev@Qt_6 6.6.0
 _ZN9QtWayland22wp_fractional_scale_v1D1Ev@Qt_6 6.6.0
 _ZN9QtWayland22wp_fractional_scale_v1D2Ev@Qt_6 6.6.0
 _ZN9QtWayland22zwp_tablet_pad_ring_v210fromObjectEP22zwp_tablet_pad_ring_v2@Qt_6 6.6.0
 _ZN9QtWayland22zwp_tablet_pad_ring_v211handle_stopEPvP22zwp_tablet_pad_ring_v2@Qt_6 6.6.0
 _ZN9QtWayland22zwp_tablet_pad_ring_v212handle_angleEPvP22zwp_tablet_pad_ring_v2i@Qt_6 6.6.0
 _ZN9QtWayland22zwp_tablet_pad_ring_v212handle_frameEPvP22zwp_tablet_pad_ring_v2j@Qt_6 6.6.0
 _ZN9QtWayland22zwp_tablet_pad_ring_v212set_feedbackERK7QStringj@Qt_6 6.6.0
 _ZN9QtWayland22zwp_tablet_pad_ring_v213handle_sourceEPvP22zwp_tablet_pad_ring_v2j@Qt_6 6.6.0
 _ZN9QtWayland22zwp_tablet_pad_ring_v213init_listenerEv@Qt_6 6.6.0
 _ZN9QtWayland22zwp_tablet_pad_ring_v227zwp_tablet_pad_ring_v2_stopEv@Qt_6 6.6.0
 _ZN9QtWayland22zwp_tablet_pad_ring_v228zwp_tablet_pad_ring_v2_angleEi@Qt_6 6.6.0
 _ZN9QtWayland22zwp_tablet_pad_ring_v228zwp_tablet_pad_ring_v2_frameEj@Qt_6 6.6.0
 _ZN9QtWayland22zwp_tablet_pad_ring_v229zwp_tablet_pad_ring_v2_sourceEj@Qt_6 6.6.0
 _ZN9QtWayland22zwp_tablet_pad_ring_v233m_zwp_tablet_pad_ring_v2_listenerE@Qt_6 6.6.0
 _ZN9QtWayland22zwp_tablet_pad_ring_v24initEP11wl_registryji@Qt_6 6.6.0
 _ZN9QtWayland22zwp_tablet_pad_ring_v24initEP22zwp_tablet_pad_ring_v2@Qt_6 6.6.0
 _ZN9QtWayland22zwp_tablet_pad_ring_v27destroyEv@Qt_6 6.6.0
 _ZN9QtWayland22zwp_tablet_pad_ring_v29interfaceEv@Qt_6 6.6.0
 _ZN9QtWayland22zwp_tablet_pad_ring_v2C1EP11wl_registryji@Qt_6 6.6.0
 _ZN9QtWayland22zwp_tablet_pad_ring_v2C1EP22zwp_tablet_pad_ring_v2@Qt_6 6.6.0
 _ZN9QtWayland22zwp_tablet_pad_ring_v2C1Ev@Qt_6 6.6.0
 _ZN9QtWayland22zwp_tablet_pad_ring_v2C2EP11wl_registryji@Qt_6 6.6.0
 _ZN9QtWayland22zwp_tablet_pad_ring_v2C2EP22zwp_tablet_pad_ring_v2@Qt_6 6.6.0
 _ZN9QtWayland22zwp_tablet_pad_ring_v2C2Ev@Qt_6 6.6.0
 _ZN9QtWayland22zwp_tablet_pad_ring_v2D0Ev@Qt_6 6.6.0
 _ZN9QtWayland22zwp_tablet_pad_ring_v2D1Ev@Qt_6 6.6.0
 _ZN9QtWayland22zwp_tablet_pad_ring_v2D2Ev@Qt_6 6.6.0
 _ZN9QtWayland22zxdg_output_manager_v110fromObjectEP22zxdg_output_manager_v1@Qt_6 6.6.0
 _ZN9QtWayland22zxdg_output_manager_v114get_xdg_outputEP9wl_output@Qt_6 6.6.0
 _ZN9QtWayland22zxdg_output_manager_v14initEP11wl_registryji@Qt_6 6.6.0
 _ZN9QtWayland22zxdg_output_manager_v14initEP22zxdg_output_manager_v1@Qt_6 6.6.0
 _ZN9QtWayland22zxdg_output_manager_v17destroyEv@Qt_6 6.6.0
 _ZN9QtWayland22zxdg_output_manager_v19interfaceEv@Qt_6 6.6.0
 _ZN9QtWayland22zxdg_output_manager_v1C1EP11wl_registryji@Qt_6 6.6.0
 _ZN9QtWayland22zxdg_output_manager_v1C1EP22zxdg_output_manager_v1@Qt_6 6.6.0
 _ZN9QtWayland22zxdg_output_manager_v1C1Ev@Qt_6 6.6.0
 _ZN9QtWayland22zxdg_output_manager_v1C2EP11wl_registryji@Qt_6 6.6.0
 _ZN9QtWayland22zxdg_output_manager_v1C2EP22zxdg_output_manager_v1@Qt_6 6.6.0
 _ZN9QtWayland22zxdg_output_manager_v1C2Ev@Qt_6 6.6.0
 _ZN9QtWayland22zxdg_output_manager_v1D0Ev@Qt_6 6.6.0
 _ZN9QtWayland22zxdg_output_manager_v1D1Ev@Qt_6 6.6.0
 _ZN9QtWayland22zxdg_output_manager_v1D2Ev@Qt_6 6.6.0
 _ZN9QtWayland23qt_hardware_integration10fromObjectEP23qt_hardware_integration@Qt_6 6.6.0
 _ZN9QtWayland23qt_hardware_integration13init_listenerEv@Qt_6 6.6.0
 _ZN9QtWayland23qt_hardware_integration21handle_client_backendEPvP23qt_hardware_integrationPKc@Qt_6 6.6.0
 _ZN9QtWayland23qt_hardware_integration21handle_server_backendEPvP23qt_hardware_integrationPKc@Qt_6 6.6.0
 _ZN9QtWayland23qt_hardware_integration34m_qt_hardware_integration_listenerE@Qt_6 6.6.0
 _ZN9QtWayland23qt_hardware_integration35hardware_integration_client_backendERK7QString@Qt_6 6.6.0
 _ZN9QtWayland23qt_hardware_integration35hardware_integration_server_backendERK7QString@Qt_6 6.6.0
 _ZN9QtWayland23qt_hardware_integration4initEP11wl_registryji@Qt_6 6.6.0
 _ZN9QtWayland23qt_hardware_integration4initEP23qt_hardware_integration@Qt_6 6.6.0
 _ZN9QtWayland23qt_hardware_integration9interfaceEv@Qt_6 6.6.0
 _ZN9QtWayland23qt_hardware_integrationC1EP11wl_registryji@Qt_6 6.6.0
 _ZN9QtWayland23qt_hardware_integrationC1EP23qt_hardware_integration@Qt_6 6.6.0
 _ZN9QtWayland23qt_hardware_integrationC1Ev@Qt_6 6.6.0
 _ZN9QtWayland23qt_hardware_integrationC2EP11wl_registryji@Qt_6 6.6.0
 _ZN9QtWayland23qt_hardware_integrationC2EP23qt_hardware_integration@Qt_6 6.6.0
 _ZN9QtWayland23qt_hardware_integrationC2Ev@Qt_6 6.6.0
 _ZN9QtWayland23qt_hardware_integrationD0Ev@Qt_6 6.6.0
 _ZN9QtWayland23qt_hardware_integrationD1Ev@Qt_6 6.6.0
 _ZN9QtWayland23qt_hardware_integrationD2Ev@Qt_6 6.6.0
 _ZN9QtWayland23qt_text_input_method_v110end_updateEv@Qt_6 6.6.0
 _ZN9QtWayland23qt_text_input_method_v110fromObjectEP23qt_text_input_method_v1@Qt_6 6.6.0
 _ZN9QtWayland23qt_text_input_method_v110handle_keyEPvP23qt_text_input_method_v1iiiiiiiiPKc@Qt_6 6.6.0
 _ZN9QtWayland23qt_text_input_method_v112handle_enterEPvP23qt_text_input_method_v1P10wl_surface@Qt_6 6.6.0
 _ZN9QtWayland23qt_text_input_method_v112handle_leaveEPvP23qt_text_input_method_v1P10wl_surface@Qt_6 6.6.0
 _ZN9QtWayland23qt_text_input_method_v112start_updateEi@Qt_6 6.6.0
 _ZN9QtWayland23qt_text_input_method_v112update_hintsEi@Qt_6 6.6.0
 _ZN9QtWayland23qt_text_input_method_v113init_listenerEv@Qt_6 6.6.0
 _ZN9QtWayland23qt_text_input_method_v113invoke_actionEii@Qt_6 6.6.0
 _ZN9QtWayland23qt_text_input_method_v116hide_input_panelEv@Qt_6 6.6.0
 _ZN9QtWayland23qt_text_input_method_v116show_input_panelEv@Qt_6 6.6.0
 _ZN9QtWayland23qt_text_input_method_v121handle_locale_changedEPvP23qt_text_input_method_v1PKc@Qt_6 6.6.0
 _ZN9QtWayland23qt_text_input_method_v122handle_visible_changedEPvP23qt_text_input_method_v1i@Qt_6 6.6.0
 _ZN9QtWayland23qt_text_input_method_v122update_anchor_positionEi@Qt_6 6.6.0
 _ZN9QtWayland23qt_text_input_method_v122update_cursor_positionEi@Qt_6 6.6.0
 _ZN9QtWayland23qt_text_input_method_v123update_cursor_rectangleEiiii@Qt_6 6.6.0
 _ZN9QtWayland23qt_text_input_method_v123update_surrounding_textERK7QStringi@Qt_6 6.6.0
 _ZN9QtWayland23qt_text_input_method_v124acknowledge_input_methodEv@Qt_6 6.6.0
 _ZN9QtWayland23qt_text_input_method_v124text_input_method_v1_keyEiiiiiiiiRK7QString@Qt_6 6.6.0
 _ZN9QtWayland23qt_text_input_method_v124update_absolute_positionEi@Qt_6 6.6.0
 _ZN9QtWayland23qt_text_input_method_v125update_preferred_languageERK7QString@Qt_6 6.6.0
 _ZN9QtWayland23qt_text_input_method_v126text_input_method_v1_enterEP10wl_surface@Qt_6 6.6.0
 _ZN9QtWayland23qt_text_input_method_v126text_input_method_v1_leaveEP10wl_surface@Qt_6 6.6.0
 _ZN9QtWayland23qt_text_input_method_v129handle_end_input_method_eventEPvP23qt_text_input_method_v1jPKcS5_ii@Qt_6 6.6.0
 _ZN9QtWayland23qt_text_input_method_v130handle_input_direction_changedEPvP23qt_text_input_method_v1i@Qt_6 6.6.0
 _ZN9QtWayland23qt_text_input_method_v131handle_start_input_method_eventEPvP23qt_text_input_method_v1ji@Qt_6 6.6.0
 _ZN9QtWayland23qt_text_input_method_v133handle_keyboard_rectangle_changedEPvP23qt_text_input_method_v1iiii@Qt_6 6.6.0
 _ZN9QtWayland23qt_text_input_method_v134m_qt_text_input_method_v1_listenerE@Qt_6 6.6.0
 _ZN9QtWayland23qt_text_input_method_v135handle_input_method_event_attributeEPvP23qt_text_input_method_v1jiiiPKc@Qt_6 6.6.0
 _ZN9QtWayland23qt_text_input_method_v135text_input_method_v1_locale_changedERK7QString@Qt_6 6.6.0
 _ZN9QtWayland23qt_text_input_method_v136text_input_method_v1_visible_changedEi@Qt_6 6.6.0
 _ZN9QtWayland23qt_text_input_method_v143text_input_method_v1_end_input_method_eventEjRK7QStringS3_ii@Qt_6 6.6.0
 _ZN9QtWayland23qt_text_input_method_v144text_input_method_v1_input_direction_changedEi@Qt_6 6.6.0
 _ZN9QtWayland23qt_text_input_method_v145text_input_method_v1_start_input_method_eventEji@Qt_6 6.6.0
 _ZN9QtWayland23qt_text_input_method_v147text_input_method_v1_keyboard_rectangle_changedEiiii@Qt_6 6.6.0
 _ZN9QtWayland23qt_text_input_method_v149text_input_method_v1_input_method_event_attributeEjiiiRK7QString@Qt_6 6.6.0
 _ZN9QtWayland23qt_text_input_method_v14initEP11wl_registryji@Qt_6 6.6.0
 _ZN9QtWayland23qt_text_input_method_v14initEP23qt_text_input_method_v1@Qt_6 6.6.0
 _ZN9QtWayland23qt_text_input_method_v15resetEv@Qt_6 6.6.0
 _ZN9QtWayland23qt_text_input_method_v16commitEv@Qt_6 6.6.0
 _ZN9QtWayland23qt_text_input_method_v16enableEP10wl_surface@Qt_6 6.6.0
 _ZN9QtWayland23qt_text_input_method_v17destroyEv@Qt_6 6.6.0
 _ZN9QtWayland23qt_text_input_method_v17disableEP10wl_surface@Qt_6 6.6.0
 _ZN9QtWayland23qt_text_input_method_v19interfaceEv@Qt_6 6.6.0
 _ZN9QtWayland23qt_text_input_method_v1C1EP11wl_registryji@Qt_6 6.6.0
 _ZN9QtWayland23qt_text_input_method_v1C1EP23qt_text_input_method_v1@Qt_6 6.6.0
 _ZN9QtWayland23qt_text_input_method_v1C1Ev@Qt_6 6.6.0
 _ZN9QtWayland23qt_text_input_method_v1C2EP11wl_registryji@Qt_6 6.6.0
 _ZN9QtWayland23qt_text_input_method_v1C2EP23qt_text_input_method_v1@Qt_6 6.6.0
 _ZN9QtWayland23qt_text_input_method_v1C2Ev@Qt_6 6.6.0
 _ZN9QtWayland23qt_text_input_method_v1D0Ev@Qt_6 6.6.0
 _ZN9QtWayland23qt_text_input_method_v1D1Ev@Qt_6 6.6.0
 _ZN9QtWayland23qt_text_input_method_v1D2Ev@Qt_6 6.6.0
 _ZN9QtWayland23zwp_pointer_gestures_v110fromObjectEP23zwp_pointer_gestures_v1@Qt_6 6.6.0
 _ZN9QtWayland23zwp_pointer_gestures_v117get_pinch_gestureEP10wl_pointer@Qt_6 6.6.0
 _ZN9QtWayland23zwp_pointer_gestures_v117get_swipe_gestureEP10wl_pointer@Qt_6 6.6.0
 _ZN9QtWayland23zwp_pointer_gestures_v14initEP11wl_registryji@Qt_6 6.6.0
 _ZN9QtWayland23zwp_pointer_gestures_v14initEP23zwp_pointer_gestures_v1@Qt_6 6.6.0
 _ZN9QtWayland23zwp_pointer_gestures_v17releaseEv@Qt_6 6.6.0
 _ZN9QtWayland23zwp_pointer_gestures_v19interfaceEv@Qt_6 6.6.0
 _ZN9QtWayland23zwp_pointer_gestures_v1C1EP11wl_registryji@Qt_6 6.6.0
 _ZN9QtWayland23zwp_pointer_gestures_v1C1EP23zwp_pointer_gestures_v1@Qt_6 6.6.0
 _ZN9QtWayland23zwp_pointer_gestures_v1C1Ev@Qt_6 6.6.0
 _ZN9QtWayland23zwp_pointer_gestures_v1C2EP11wl_registryji@Qt_6 6.6.0
 _ZN9QtWayland23zwp_pointer_gestures_v1C2EP23zwp_pointer_gestures_v1@Qt_6 6.6.0
 _ZN9QtWayland23zwp_pointer_gestures_v1C2Ev@Qt_6 6.6.0
 _ZN9QtWayland23zwp_pointer_gestures_v1D0Ev@Qt_6 6.6.0
 _ZN9QtWayland23zwp_pointer_gestures_v1D1Ev@Qt_6 6.6.0
 _ZN9QtWayland23zwp_pointer_gestures_v1D2Ev@Qt_6 6.6.0
 _ZN9QtWayland23zwp_tablet_pad_group_v210fromObjectEP23zwp_tablet_pad_group_v2@Qt_6 6.6.0
 _ZN9QtWayland23zwp_tablet_pad_group_v211handle_doneEPvP23zwp_tablet_pad_group_v2@Qt_6 6.6.0
 _ZN9QtWayland23zwp_tablet_pad_group_v211handle_ringEPvP23zwp_tablet_pad_group_v2P22zwp_tablet_pad_ring_v2@Qt_6 6.6.0
 _ZN9QtWayland23zwp_tablet_pad_group_v212handle_modesEPvP23zwp_tablet_pad_group_v2j@Qt_6 6.6.0
 _ZN9QtWayland23zwp_tablet_pad_group_v212handle_stripEPvP23zwp_tablet_pad_group_v2P23zwp_tablet_pad_strip_v2@Qt_6 6.6.0
 _ZN9QtWayland23zwp_tablet_pad_group_v213init_listenerEv@Qt_6 6.6.0
 _ZN9QtWayland23zwp_tablet_pad_group_v214handle_buttonsEPvP23zwp_tablet_pad_group_v2P8wl_array@Qt_6 6.6.0
 _ZN9QtWayland23zwp_tablet_pad_group_v218handle_mode_switchEPvP23zwp_tablet_pad_group_v2jjj@Qt_6 6.6.0
 _ZN9QtWayland23zwp_tablet_pad_group_v228zwp_tablet_pad_group_v2_doneEv@Qt_6 6.6.0
 _ZN9QtWayland23zwp_tablet_pad_group_v228zwp_tablet_pad_group_v2_ringEP22zwp_tablet_pad_ring_v2@Qt_6 6.6.0
 _ZN9QtWayland23zwp_tablet_pad_group_v229zwp_tablet_pad_group_v2_modesEj@Qt_6 6.6.0
 _ZN9QtWayland23zwp_tablet_pad_group_v229zwp_tablet_pad_group_v2_stripEP23zwp_tablet_pad_strip_v2@Qt_6 6.6.0
 _ZN9QtWayland23zwp_tablet_pad_group_v231zwp_tablet_pad_group_v2_buttonsEP8wl_array@Qt_6 6.6.0
 _ZN9QtWayland23zwp_tablet_pad_group_v234m_zwp_tablet_pad_group_v2_listenerE@Qt_6 6.6.0
 _ZN9QtWayland23zwp_tablet_pad_group_v235zwp_tablet_pad_group_v2_mode_switchEjjj@Qt_6 6.6.0
 _ZN9QtWayland23zwp_tablet_pad_group_v24initEP11wl_registryji@Qt_6 6.6.0
 _ZN9QtWayland23zwp_tablet_pad_group_v24initEP23zwp_tablet_pad_group_v2@Qt_6 6.6.0
 _ZN9QtWayland23zwp_tablet_pad_group_v27destroyEv@Qt_6 6.6.0
 _ZN9QtWayland23zwp_tablet_pad_group_v29interfaceEv@Qt_6 6.6.0
 _ZN9QtWayland23zwp_tablet_pad_group_v2C1EP11wl_registryji@Qt_6 6.6.0
 _ZN9QtWayland23zwp_tablet_pad_group_v2C1EP23zwp_tablet_pad_group_v2@Qt_6 6.6.0
 _ZN9QtWayland23zwp_tablet_pad_group_v2C1Ev@Qt_6 6.6.0
 _ZN9QtWayland23zwp_tablet_pad_group_v2C2EP11wl_registryji@Qt_6 6.6.0
 _ZN9QtWayland23zwp_tablet_pad_group_v2C2EP23zwp_tablet_pad_group_v2@Qt_6 6.6.0
 _ZN9QtWayland23zwp_tablet_pad_group_v2C2Ev@Qt_6 6.6.0
 _ZN9QtWayland23zwp_tablet_pad_group_v2D0Ev@Qt_6 6.6.0
 _ZN9QtWayland23zwp_tablet_pad_group_v2D1Ev@Qt_6 6.6.0
 _ZN9QtWayland23zwp_tablet_pad_group_v2D2Ev@Qt_6 6.6.0
 _ZN9QtWayland23zwp_tablet_pad_strip_v210fromObjectEP23zwp_tablet_pad_strip_v2@Qt_6 6.6.0
 _ZN9QtWayland23zwp_tablet_pad_strip_v211handle_stopEPvP23zwp_tablet_pad_strip_v2@Qt_6 6.6.0
 _ZN9QtWayland23zwp_tablet_pad_strip_v212handle_frameEPvP23zwp_tablet_pad_strip_v2j@Qt_6 6.6.0
 _ZN9QtWayland23zwp_tablet_pad_strip_v212set_feedbackERK7QStringj@Qt_6 6.6.0
 _ZN9QtWayland23zwp_tablet_pad_strip_v213handle_sourceEPvP23zwp_tablet_pad_strip_v2j@Qt_6 6.6.0
 _ZN9QtWayland23zwp_tablet_pad_strip_v213init_listenerEv@Qt_6 6.6.0
 _ZN9QtWayland23zwp_tablet_pad_strip_v215handle_positionEPvP23zwp_tablet_pad_strip_v2j@Qt_6 6.6.0
 _ZN9QtWayland23zwp_tablet_pad_strip_v228zwp_tablet_pad_strip_v2_stopEv@Qt_6 6.6.0
 _ZN9QtWayland23zwp_tablet_pad_strip_v229zwp_tablet_pad_strip_v2_frameEj@Qt_6 6.6.0
 _ZN9QtWayland23zwp_tablet_pad_strip_v230zwp_tablet_pad_strip_v2_sourceEj@Qt_6 6.6.0
 _ZN9QtWayland23zwp_tablet_pad_strip_v232zwp_tablet_pad_strip_v2_positionEj@Qt_6 6.6.0
 _ZN9QtWayland23zwp_tablet_pad_strip_v234m_zwp_tablet_pad_strip_v2_listenerE@Qt_6 6.6.0
 _ZN9QtWayland23zwp_tablet_pad_strip_v24initEP11wl_registryji@Qt_6 6.6.0
 _ZN9QtWayland23zwp_tablet_pad_strip_v24initEP23zwp_tablet_pad_strip_v2@Qt_6 6.6.0
 _ZN9QtWayland23zwp_tablet_pad_strip_v27destroyEv@Qt_6 6.6.0
 _ZN9QtWayland23zwp_tablet_pad_strip_v29interfaceEv@Qt_6 6.6.0
 _ZN9QtWayland23zwp_tablet_pad_strip_v2C1EP11wl_registryji@Qt_6 6.6.0
 _ZN9QtWayland23zwp_tablet_pad_strip_v2C1EP23zwp_tablet_pad_strip_v2@Qt_6 6.6.0
 _ZN9QtWayland23zwp_tablet_pad_strip_v2C1Ev@Qt_6 6.6.0
 _ZN9QtWayland23zwp_tablet_pad_strip_v2C2EP11wl_registryji@Qt_6 6.6.0
 _ZN9QtWayland23zwp_tablet_pad_strip_v2C2EP23zwp_tablet_pad_strip_v2@Qt_6 6.6.0
 _ZN9QtWayland23zwp_tablet_pad_strip_v2C2Ev@Qt_6 6.6.0
 _ZN9QtWayland23zwp_tablet_pad_strip_v2D0Ev@Qt_6 6.6.0
 _ZN9QtWayland23zwp_tablet_pad_strip_v2D1Ev@Qt_6 6.6.0
 _ZN9QtWayland23zwp_tablet_pad_strip_v2D2Ev@Qt_6 6.6.0
 _ZN9QtWayland25wp_cursor_shape_device_v110fromObjectEP25wp_cursor_shape_device_v1@Qt_6 6.6.0
 _ZN9QtWayland25wp_cursor_shape_device_v14initEP11wl_registryji@Qt_6 6.6.0
 _ZN9QtWayland25wp_cursor_shape_device_v14initEP25wp_cursor_shape_device_v1@Qt_6 6.6.0
 _ZN9QtWayland25wp_cursor_shape_device_v17destroyEv@Qt_6 6.6.0
 _ZN9QtWayland25wp_cursor_shape_device_v19interfaceEv@Qt_6 6.6.0
 _ZN9QtWayland25wp_cursor_shape_device_v19set_shapeEjj@Qt_6 6.6.0
 _ZN9QtWayland25wp_cursor_shape_device_v1C1EP11wl_registryji@Qt_6 6.6.0
 _ZN9QtWayland25wp_cursor_shape_device_v1C1EP25wp_cursor_shape_device_v1@Qt_6 6.6.0
 _ZN9QtWayland25wp_cursor_shape_device_v1C1Ev@Qt_6 6.6.0
 _ZN9QtWayland25wp_cursor_shape_device_v1C2EP11wl_registryji@Qt_6 6.6.0
 _ZN9QtWayland25wp_cursor_shape_device_v1C2EP25wp_cursor_shape_device_v1@Qt_6 6.6.0
 _ZN9QtWayland25wp_cursor_shape_device_v1C2Ev@Qt_6 6.6.0
 _ZN9QtWayland25wp_cursor_shape_device_v1D0Ev@Qt_6 6.6.0
 _ZN9QtWayland25wp_cursor_shape_device_v1D1Ev@Qt_6 6.6.0
 _ZN9QtWayland25wp_cursor_shape_device_v1D2Ev@Qt_6 6.6.0
 _ZN9QtWayland25zwp_text_input_manager_v110fromObjectEP25zwp_text_input_manager_v1@Qt_6 6.6.0
 _ZN9QtWayland25zwp_text_input_manager_v117create_text_inputEv@Qt_6 6.6.0
 _ZN9QtWayland25zwp_text_input_manager_v14initEP11wl_registryji@Qt_6 6.6.0
 _ZN9QtWayland25zwp_text_input_manager_v14initEP25zwp_text_input_manager_v1@Qt_6 6.6.0
 _ZN9QtWayland25zwp_text_input_manager_v19interfaceEv@Qt_6 6.6.0
 _ZN9QtWayland25zwp_text_input_manager_v1C1EP11wl_registryji@Qt_6 6.6.0
 _ZN9QtWayland25zwp_text_input_manager_v1C1EP25zwp_text_input_manager_v1@Qt_6 6.6.0
 _ZN9QtWayland25zwp_text_input_manager_v1C1Ev@Qt_6 6.6.0
 _ZN9QtWayland25zwp_text_input_manager_v1C2EP11wl_registryji@Qt_6 6.6.0
 _ZN9QtWayland25zwp_text_input_manager_v1C2EP25zwp_text_input_manager_v1@Qt_6 6.6.0
 _ZN9QtWayland25zwp_text_input_manager_v1C2Ev@Qt_6 6.6.0
 _ZN9QtWayland25zwp_text_input_manager_v1D0Ev@Qt_6 6.6.0
 _ZN9QtWayland25zwp_text_input_manager_v1D1Ev@Qt_6 6.6.0
 _ZN9QtWayland25zwp_text_input_manager_v1D2Ev@Qt_6 6.6.0
 _ZN9QtWayland25zwp_text_input_manager_v210fromObjectEP25zwp_text_input_manager_v2@Qt_6 6.6.0
 _ZN9QtWayland25zwp_text_input_manager_v214get_text_inputEP7wl_seat@Qt_6 6.6.0
 _ZN9QtWayland25zwp_text_input_manager_v24initEP11wl_registryji@Qt_6 6.6.0
 _ZN9QtWayland25zwp_text_input_manager_v24initEP25zwp_text_input_manager_v2@Qt_6 6.6.0
 _ZN9QtWayland25zwp_text_input_manager_v27destroyEv@Qt_6 6.6.0
 _ZN9QtWayland25zwp_text_input_manager_v29interfaceEv@Qt_6 6.6.0
 _ZN9QtWayland25zwp_text_input_manager_v2C1EP11wl_registryji@Qt_6 6.6.0
 _ZN9QtWayland25zwp_text_input_manager_v2C1EP25zwp_text_input_manager_v2@Qt_6 6.6.0
 _ZN9QtWayland25zwp_text_input_manager_v2C1Ev@Qt_6 6.6.0
 _ZN9QtWayland25zwp_text_input_manager_v2C2EP11wl_registryji@Qt_6 6.6.0
 _ZN9QtWayland25zwp_text_input_manager_v2C2EP25zwp_text_input_manager_v2@Qt_6 6.6.0
 _ZN9QtWayland25zwp_text_input_manager_v2C2Ev@Qt_6 6.6.0
 _ZN9QtWayland25zwp_text_input_manager_v2D0Ev@Qt_6 6.6.0
 _ZN9QtWayland25zwp_text_input_manager_v2D1Ev@Qt_6 6.6.0
 _ZN9QtWayland25zwp_text_input_manager_v2D2Ev@Qt_6 6.6.0
 _ZN9QtWayland25zwp_text_input_manager_v310fromObjectEP25zwp_text_input_manager_v3@Qt_6 6.7.2
 _ZN9QtWayland25zwp_text_input_manager_v314get_text_inputEP7wl_seat@Qt_6 6.7.2
 _ZN9QtWayland25zwp_text_input_manager_v34initEP11wl_registryji@Qt_6 6.7.2
 _ZN9QtWayland25zwp_text_input_manager_v34initEP25zwp_text_input_manager_v3@Qt_6 6.7.2
 _ZN9QtWayland25zwp_text_input_manager_v37destroyEv@Qt_6 6.7.2
 _ZN9QtWayland25zwp_text_input_manager_v39interfaceEv@Qt_6 6.7.2
 _ZN9QtWayland25zwp_text_input_manager_v3C1EP11wl_registryji@Qt_6 6.7.2
 _ZN9QtWayland25zwp_text_input_manager_v3C1EP25zwp_text_input_manager_v3@Qt_6 6.7.2
 _ZN9QtWayland25zwp_text_input_manager_v3C1Ev@Qt_6 6.7.2
 _ZN9QtWayland25zwp_text_input_manager_v3C2EP11wl_registryji@Qt_6 6.7.2
 _ZN9QtWayland25zwp_text_input_manager_v3C2EP25zwp_text_input_manager_v3@Qt_6 6.7.2
 _ZN9QtWayland25zwp_text_input_manager_v3C2Ev@Qt_6 6.7.2
 _ZN9QtWayland25zwp_text_input_manager_v3D0Ev@Qt_6 6.7.2
 _ZN9QtWayland25zwp_text_input_manager_v3D1Ev@Qt_6 6.7.2
 _ZN9QtWayland25zwp_text_input_manager_v3D2Ev@Qt_6 6.7.2
 _ZN9QtWayland26wp_cursor_shape_manager_v110fromObjectEP26wp_cursor_shape_manager_v1@Qt_6 6.6.0
 _ZN9QtWayland26wp_cursor_shape_manager_v111get_pointerEP10wl_pointer@Qt_6 6.6.0
 _ZN9QtWayland26wp_cursor_shape_manager_v118get_tablet_tool_v2EP18zwp_tablet_tool_v2@Qt_6 6.6.0
 _ZN9QtWayland26wp_cursor_shape_manager_v14initEP11wl_registryji@Qt_6 6.6.0
 _ZN9QtWayland26wp_cursor_shape_manager_v14initEP26wp_cursor_shape_manager_v1@Qt_6 6.6.0
 _ZN9QtWayland26wp_cursor_shape_manager_v17destroyEv@Qt_6 6.6.0
 _ZN9QtWayland26wp_cursor_shape_manager_v19interfaceEv@Qt_6 6.6.0
 _ZN9QtWayland26wp_cursor_shape_manager_v1C1EP11wl_registryji@Qt_6 6.6.0
 _ZN9QtWayland26wp_cursor_shape_manager_v1C1EP26wp_cursor_shape_manager_v1@Qt_6 6.6.0
 _ZN9QtWayland26wp_cursor_shape_manager_v1C1Ev@Qt_6 6.6.0
 _ZN9QtWayland26wp_cursor_shape_manager_v1C2EP11wl_registryji@Qt_6 6.6.0
 _ZN9QtWayland26wp_cursor_shape_manager_v1C2EP26wp_cursor_shape_manager_v1@Qt_6 6.6.0
 _ZN9QtWayland26wp_cursor_shape_manager_v1C2Ev@Qt_6 6.6.0
 _ZN9QtWayland26wp_cursor_shape_manager_v1D0Ev@Qt_6 6.6.0
 _ZN9QtWayland26wp_cursor_shape_manager_v1D1Ev@Qt_6 6.6.0
 _ZN9QtWayland26wp_cursor_shape_manager_v1D2Ev@Qt_6 6.6.0
 _ZN9QtWayland28xdg_toplevel_drag_manager_v110fromObjectEP28xdg_toplevel_drag_manager_v1@Qt_6 6.7.2
 _ZN9QtWayland28xdg_toplevel_drag_manager_v121get_xdg_toplevel_dragEP14wl_data_source@Qt_6 6.7.2
 _ZN9QtWayland28xdg_toplevel_drag_manager_v14initEP11wl_registryji@Qt_6 6.7.2
 _ZN9QtWayland28xdg_toplevel_drag_manager_v14initEP28xdg_toplevel_drag_manager_v1@Qt_6 6.7.2
 _ZN9QtWayland28xdg_toplevel_drag_manager_v17destroyEv@Qt_6 6.7.2
 _ZN9QtWayland28xdg_toplevel_drag_manager_v19interfaceEv@Qt_6 6.7.2
 _ZN9QtWayland28xdg_toplevel_drag_manager_v1C1EP11wl_registryji@Qt_6 6.7.2
 _ZN9QtWayland28xdg_toplevel_drag_manager_v1C1EP28xdg_toplevel_drag_manager_v1@Qt_6 6.7.2
 _ZN9QtWayland28xdg_toplevel_drag_manager_v1C1Ev@Qt_6 6.7.2
 _ZN9QtWayland28xdg_toplevel_drag_manager_v1C2EP11wl_registryji@Qt_6 6.7.2
 _ZN9QtWayland28xdg_toplevel_drag_manager_v1C2EP28xdg_toplevel_drag_manager_v1@Qt_6 6.7.2
 _ZN9QtWayland28xdg_toplevel_drag_manager_v1C2Ev@Qt_6 6.7.2
 _ZN9QtWayland28xdg_toplevel_drag_manager_v1D0Ev@Qt_6 6.7.2
 _ZN9QtWayland28xdg_toplevel_drag_manager_v1D1Ev@Qt_6 6.7.2
 _ZN9QtWayland28xdg_toplevel_drag_manager_v1D2Ev@Qt_6 6.7.2
 _ZN9QtWayland28zwp_pointer_gesture_pinch_v110fromObjectEP28zwp_pointer_gesture_pinch_v1@Qt_6 6.6.0
 _ZN9QtWayland28zwp_pointer_gesture_pinch_v110handle_endEPvP28zwp_pointer_gesture_pinch_v1jji@Qt_6 6.6.0
 _ZN9QtWayland28zwp_pointer_gesture_pinch_v112handle_beginEPvP28zwp_pointer_gesture_pinch_v1jjP10wl_surfacej@Qt_6 6.6.0
 _ZN9QtWayland28zwp_pointer_gesture_pinch_v113handle_updateEPvP28zwp_pointer_gesture_pinch_v1jiiii@Qt_6 6.6.0
 _ZN9QtWayland28zwp_pointer_gesture_pinch_v113init_listenerEv@Qt_6 6.6.0
 _ZN9QtWayland28zwp_pointer_gesture_pinch_v132zwp_pointer_gesture_pinch_v1_endEjji@Qt_6 6.6.0
 _ZN9QtWayland28zwp_pointer_gesture_pinch_v134zwp_pointer_gesture_pinch_v1_beginEjjP10wl_surfacej@Qt_6 6.6.0
 _ZN9QtWayland28zwp_pointer_gesture_pinch_v135zwp_pointer_gesture_pinch_v1_updateEjiiii@Qt_6 6.6.0
 _ZN9QtWayland28zwp_pointer_gesture_pinch_v139m_zwp_pointer_gesture_pinch_v1_listenerE@Qt_6 6.6.0
 _ZN9QtWayland28zwp_pointer_gesture_pinch_v14initEP11wl_registryji@Qt_6 6.6.0
 _ZN9QtWayland28zwp_pointer_gesture_pinch_v14initEP28zwp_pointer_gesture_pinch_v1@Qt_6 6.6.0
 _ZN9QtWayland28zwp_pointer_gesture_pinch_v17destroyEv@Qt_6 6.6.0
 _ZN9QtWayland28zwp_pointer_gesture_pinch_v19interfaceEv@Qt_6 6.6.0
 _ZN9QtWayland28zwp_pointer_gesture_pinch_v1C1EP11wl_registryji@Qt_6 6.6.0
 _ZN9QtWayland28zwp_pointer_gesture_pinch_v1C1EP28zwp_pointer_gesture_pinch_v1@Qt_6 6.6.0
 _ZN9QtWayland28zwp_pointer_gesture_pinch_v1C1Ev@Qt_6 6.6.0
 _ZN9QtWayland28zwp_pointer_gesture_pinch_v1C2EP11wl_registryji@Qt_6 6.6.0
 _ZN9QtWayland28zwp_pointer_gesture_pinch_v1C2EP28zwp_pointer_gesture_pinch_v1@Qt_6 6.6.0
 _ZN9QtWayland28zwp_pointer_gesture_pinch_v1C2Ev@Qt_6 6.6.0
 _ZN9QtWayland28zwp_pointer_gesture_pinch_v1D0Ev@Qt_6 6.6.0
 _ZN9QtWayland28zwp_pointer_gesture_pinch_v1D1Ev@Qt_6 6.6.0
 _ZN9QtWayland28zwp_pointer_gesture_pinch_v1D2Ev@Qt_6 6.6.0
 _ZN9QtWayland28zwp_pointer_gesture_swipe_v110fromObjectEP28zwp_pointer_gesture_swipe_v1@Qt_6 6.6.0
 _ZN9QtWayland28zwp_pointer_gesture_swipe_v110handle_endEPvP28zwp_pointer_gesture_swipe_v1jji@Qt_6 6.6.0
 _ZN9QtWayland28zwp_pointer_gesture_swipe_v112handle_beginEPvP28zwp_pointer_gesture_swipe_v1jjP10wl_surfacej@Qt_6 6.6.0
 _ZN9QtWayland28zwp_pointer_gesture_swipe_v113handle_updateEPvP28zwp_pointer_gesture_swipe_v1jii@Qt_6 6.6.0
 _ZN9QtWayland28zwp_pointer_gesture_swipe_v113init_listenerEv@Qt_6 6.6.0
 _ZN9QtWayland28zwp_pointer_gesture_swipe_v132zwp_pointer_gesture_swipe_v1_endEjji@Qt_6 6.6.0
 _ZN9QtWayland28zwp_pointer_gesture_swipe_v134zwp_pointer_gesture_swipe_v1_beginEjjP10wl_surfacej@Qt_6 6.6.0
 _ZN9QtWayland28zwp_pointer_gesture_swipe_v135zwp_pointer_gesture_swipe_v1_updateEjii@Qt_6 6.6.0
 _ZN9QtWayland28zwp_pointer_gesture_swipe_v139m_zwp_pointer_gesture_swipe_v1_listenerE@Qt_6 6.6.0
 _ZN9QtWayland28zwp_pointer_gesture_swipe_v14initEP11wl_registryji@Qt_6 6.6.0
 _ZN9QtWayland28zwp_pointer_gesture_swipe_v14initEP28zwp_pointer_gesture_swipe_v1@Qt_6 6.6.0
 _ZN9QtWayland28zwp_pointer_gesture_swipe_v17destroyEv@Qt_6 6.6.0
 _ZN9QtWayland28zwp_pointer_gesture_swipe_v19interfaceEv@Qt_6 6.6.0
 _ZN9QtWayland28zwp_pointer_gesture_swipe_v1C1EP11wl_registryji@Qt_6 6.6.0
 _ZN9QtWayland28zwp_pointer_gesture_swipe_v1C1EP28zwp_pointer_gesture_swipe_v1@Qt_6 6.6.0
 _ZN9QtWayland28zwp_pointer_gesture_swipe_v1C1Ev@Qt_6 6.6.0
 _ZN9QtWayland28zwp_pointer_gesture_swipe_v1C2EP11wl_registryji@Qt_6 6.6.0
 _ZN9QtWayland28zwp_pointer_gesture_swipe_v1C2EP28zwp_pointer_gesture_swipe_v1@Qt_6 6.6.0
 _ZN9QtWayland28zwp_pointer_gesture_swipe_v1C2Ev@Qt_6 6.6.0
 _ZN9QtWayland28zwp_pointer_gesture_swipe_v1D0Ev@Qt_6 6.6.0
 _ZN9QtWayland28zwp_pointer_gesture_swipe_v1D1Ev@Qt_6 6.6.0
 _ZN9QtWayland28zwp_pointer_gesture_swipe_v1D2Ev@Qt_6 6.6.0
 _ZN9QtWayland30wp_fractional_scale_manager_v110fromObjectEP30wp_fractional_scale_manager_v1@Qt_6 6.6.0
 _ZN9QtWayland30wp_fractional_scale_manager_v120get_fractional_scaleEP10wl_surface@Qt_6 6.6.0
 _ZN9QtWayland30wp_fractional_scale_manager_v14initEP11wl_registryji@Qt_6 6.6.0
 _ZN9QtWayland30wp_fractional_scale_manager_v14initEP30wp_fractional_scale_manager_v1@Qt_6 6.6.0
 _ZN9QtWayland30wp_fractional_scale_manager_v17destroyEv@Qt_6 6.6.0
 _ZN9QtWayland30wp_fractional_scale_manager_v19interfaceEv@Qt_6 6.6.0
 _ZN9QtWayland30wp_fractional_scale_manager_v1C1EP11wl_registryji@Qt_6 6.6.0
 _ZN9QtWayland30wp_fractional_scale_manager_v1C1EP30wp_fractional_scale_manager_v1@Qt_6 6.6.0
 _ZN9QtWayland30wp_fractional_scale_manager_v1C1Ev@Qt_6 6.6.0
 _ZN9QtWayland30wp_fractional_scale_manager_v1C2EP11wl_registryji@Qt_6 6.6.0
 _ZN9QtWayland30wp_fractional_scale_manager_v1C2EP30wp_fractional_scale_manager_v1@Qt_6 6.6.0
 _ZN9QtWayland30wp_fractional_scale_manager_v1C2Ev@Qt_6 6.6.0
 _ZN9QtWayland30wp_fractional_scale_manager_v1D0Ev@Qt_6 6.6.0
 _ZN9QtWayland30wp_fractional_scale_manager_v1D1Ev@Qt_6 6.6.0
 _ZN9QtWayland30wp_fractional_scale_manager_v1D2Ev@Qt_6 6.6.0
 _ZN9QtWayland30zwp_primary_selection_offer_v110fromObjectEP30zwp_primary_selection_offer_v1@Qt_6 6.6.0
 _ZN9QtWayland30zwp_primary_selection_offer_v112handle_offerEPvP30zwp_primary_selection_offer_v1PKc@Qt_6 6.6.0
 _ZN9QtWayland30zwp_primary_selection_offer_v113init_listenerEv@Qt_6 6.6.0
 _ZN9QtWayland30zwp_primary_selection_offer_v136zwp_primary_selection_offer_v1_offerERK7QString@Qt_6 6.6.0
 _ZN9QtWayland30zwp_primary_selection_offer_v141m_zwp_primary_selection_offer_v1_listenerE@Qt_6 6.6.0
 _ZN9QtWayland30zwp_primary_selection_offer_v14initEP11wl_registryji@Qt_6 6.6.0
 _ZN9QtWayland30zwp_primary_selection_offer_v14initEP30zwp_primary_selection_offer_v1@Qt_6 6.6.0
 _ZN9QtWayland30zwp_primary_selection_offer_v17destroyEv@Qt_6 6.6.0
 _ZN9QtWayland30zwp_primary_selection_offer_v17receiveERK7QStringi@Qt_6 6.6.0
 _ZN9QtWayland30zwp_primary_selection_offer_v19interfaceEv@Qt_6 6.6.0
 _ZN9QtWayland30zwp_primary_selection_offer_v1C1EP11wl_registryji@Qt_6 6.6.0
 _ZN9QtWayland30zwp_primary_selection_offer_v1C1EP30zwp_primary_selection_offer_v1@Qt_6 6.6.0
 _ZN9QtWayland30zwp_primary_selection_offer_v1C1Ev@Qt_6 6.6.0
 _ZN9QtWayland30zwp_primary_selection_offer_v1C2EP11wl_registryji@Qt_6 6.6.0
 _ZN9QtWayland30zwp_primary_selection_offer_v1C2EP30zwp_primary_selection_offer_v1@Qt_6 6.6.0
 _ZN9QtWayland30zwp_primary_selection_offer_v1C2Ev@Qt_6 6.6.0
 _ZN9QtWayland30zwp_primary_selection_offer_v1D0Ev@Qt_6 6.6.0
 _ZN9QtWayland30zwp_primary_selection_offer_v1D1Ev@Qt_6 6.6.0
 _ZN9QtWayland30zwp_primary_selection_offer_v1D2Ev@Qt_6 6.6.0
 _ZN9QtWayland31qt_text_input_method_manager_v110fromObjectEP31qt_text_input_method_manager_v1@Qt_6 6.6.0
 _ZN9QtWayland31qt_text_input_method_manager_v121get_text_input_methodEP7wl_seat@Qt_6 6.6.0
 _ZN9QtWayland31qt_text_input_method_manager_v14initEP11wl_registryji@Qt_6 6.6.0
 _ZN9QtWayland31qt_text_input_method_manager_v14initEP31qt_text_input_method_manager_v1@Qt_6 6.6.0
 _ZN9QtWayland31qt_text_input_method_manager_v17destroyEv@Qt_6 6.6.0
 _ZN9QtWayland31qt_text_input_method_manager_v19interfaceEv@Qt_6 6.6.0
 _ZN9QtWayland31qt_text_input_method_manager_v1C1EP11wl_registryji@Qt_6 6.6.0
 _ZN9QtWayland31qt_text_input_method_manager_v1C1EP31qt_text_input_method_manager_v1@Qt_6 6.6.0
 _ZN9QtWayland31qt_text_input_method_manager_v1C1Ev@Qt_6 6.6.0
 _ZN9QtWayland31qt_text_input_method_manager_v1C2EP11wl_registryji@Qt_6 6.6.0
 _ZN9QtWayland31qt_text_input_method_manager_v1C2EP31qt_text_input_method_manager_v1@Qt_6 6.6.0
 _ZN9QtWayland31qt_text_input_method_manager_v1C2Ev@Qt_6 6.6.0
 _ZN9QtWayland31qt_text_input_method_manager_v1D0Ev@Qt_6 6.6.0
 _ZN9QtWayland31qt_text_input_method_manager_v1D1Ev@Qt_6 6.6.0
 _ZN9QtWayland31qt_text_input_method_manager_v1D2Ev@Qt_6 6.6.0
 _ZN9QtWayland31zwp_primary_selection_device_v110fromObjectEP31zwp_primary_selection_device_v1@Qt_6 6.6.0
 _ZN9QtWayland31zwp_primary_selection_device_v113init_listenerEv@Qt_6 6.6.0
 _ZN9QtWayland31zwp_primary_selection_device_v113set_selectionEP31zwp_primary_selection_source_v1j@Qt_6 6.6.0
 _ZN9QtWayland31zwp_primary_selection_device_v116handle_selectionEPvP31zwp_primary_selection_device_v1P30zwp_primary_selection_offer_v1@Qt_6 6.6.0
 _ZN9QtWayland31zwp_primary_selection_device_v117handle_data_offerEPvP31zwp_primary_selection_device_v1P30zwp_primary_selection_offer_v1@Qt_6 6.6.0
 _ZN9QtWayland31zwp_primary_selection_device_v141zwp_primary_selection_device_v1_selectionEP30zwp_primary_selection_offer_v1@Qt_6 6.6.0
 _ZN9QtWayland31zwp_primary_selection_device_v142m_zwp_primary_selection_device_v1_listenerE@Qt_6 6.6.0
 _ZN9QtWayland31zwp_primary_selection_device_v142zwp_primary_selection_device_v1_data_offerEP30zwp_primary_selection_offer_v1@Qt_6 6.6.0
 _ZN9QtWayland31zwp_primary_selection_device_v14initEP11wl_registryji@Qt_6 6.6.0
 _ZN9QtWayland31zwp_primary_selection_device_v14initEP31zwp_primary_selection_device_v1@Qt_6 6.6.0
 _ZN9QtWayland31zwp_primary_selection_device_v17destroyEv@Qt_6 6.6.0
 _ZN9QtWayland31zwp_primary_selection_device_v19interfaceEv@Qt_6 6.6.0
 _ZN9QtWayland31zwp_primary_selection_device_v1C1EP11wl_registryji@Qt_6 6.6.0
 _ZN9QtWayland31zwp_primary_selection_device_v1C1EP31zwp_primary_selection_device_v1@Qt_6 6.6.0
 _ZN9QtWayland31zwp_primary_selection_device_v1C1Ev@Qt_6 6.6.0
 _ZN9QtWayland31zwp_primary_selection_device_v1C2EP11wl_registryji@Qt_6 6.6.0
 _ZN9QtWayland31zwp_primary_selection_device_v1C2EP31zwp_primary_selection_device_v1@Qt_6 6.6.0
 _ZN9QtWayland31zwp_primary_selection_device_v1C2Ev@Qt_6 6.6.0
 _ZN9QtWayland31zwp_primary_selection_device_v1D0Ev@Qt_6 6.6.0
 _ZN9QtWayland31zwp_primary_selection_device_v1D1Ev@Qt_6 6.6.0
 _ZN9QtWayland31zwp_primary_selection_device_v1D2Ev@Qt_6 6.6.0
 _ZN9QtWayland31zwp_primary_selection_source_v110fromObjectEP31zwp_primary_selection_source_v1@Qt_6 6.6.0
 _ZN9QtWayland31zwp_primary_selection_source_v111handle_sendEPvP31zwp_primary_selection_source_v1PKci@Qt_6 6.6.0
 _ZN9QtWayland31zwp_primary_selection_source_v113init_listenerEv@Qt_6 6.6.0
 _ZN9QtWayland31zwp_primary_selection_source_v116handle_cancelledEPvP31zwp_primary_selection_source_v1@Qt_6 6.6.0
 _ZN9QtWayland31zwp_primary_selection_source_v136zwp_primary_selection_source_v1_sendERK7QStringi@Qt_6 6.6.0
 _ZN9QtWayland31zwp_primary_selection_source_v141zwp_primary_selection_source_v1_cancelledEv@Qt_6 6.6.0
 _ZN9QtWayland31zwp_primary_selection_source_v142m_zwp_primary_selection_source_v1_listenerE@Qt_6 6.6.0
 _ZN9QtWayland31zwp_primary_selection_source_v14initEP11wl_registryji@Qt_6 6.6.0
 _ZN9QtWayland31zwp_primary_selection_source_v14initEP31zwp_primary_selection_source_v1@Qt_6 6.6.0
 _ZN9QtWayland31zwp_primary_selection_source_v15offerERK7QString@Qt_6 6.6.0
 _ZN9QtWayland31zwp_primary_selection_source_v17destroyEv@Qt_6 6.6.0
 _ZN9QtWayland31zwp_primary_selection_source_v19interfaceEv@Qt_6 6.6.0
 _ZN9QtWayland31zwp_primary_selection_source_v1C1EP11wl_registryji@Qt_6 6.6.0
 _ZN9QtWayland31zwp_primary_selection_source_v1C1EP31zwp_primary_selection_source_v1@Qt_6 6.6.0
 _ZN9QtWayland31zwp_primary_selection_source_v1C1Ev@Qt_6 6.6.0
 _ZN9QtWayland31zwp_primary_selection_source_v1C2EP11wl_registryji@Qt_6 6.6.0
 _ZN9QtWayland31zwp_primary_selection_source_v1C2EP31zwp_primary_selection_source_v1@Qt_6 6.6.0
 _ZN9QtWayland31zwp_primary_selection_source_v1C2Ev@Qt_6 6.6.0
 _ZN9QtWayland31zwp_primary_selection_source_v1D0Ev@Qt_6 6.6.0
 _ZN9QtWayland31zwp_primary_selection_source_v1D1Ev@Qt_6 6.6.0
 _ZN9QtWayland31zwp_primary_selection_source_v1D2Ev@Qt_6 6.6.0
 _ZN9QtWayland39zwp_primary_selection_device_manager_v110fromObjectEP39zwp_primary_selection_device_manager_v1@Qt_6 6.6.0
 _ZN9QtWayland39zwp_primary_selection_device_manager_v110get_deviceEP7wl_seat@Qt_6 6.6.0
 _ZN9QtWayland39zwp_primary_selection_device_manager_v113create_sourceEv@Qt_6 6.6.0
 _ZN9QtWayland39zwp_primary_selection_device_manager_v14initEP11wl_registryji@Qt_6 6.6.0
 _ZN9QtWayland39zwp_primary_selection_device_manager_v14initEP39zwp_primary_selection_device_manager_v1@Qt_6 6.6.0
 _ZN9QtWayland39zwp_primary_selection_device_manager_v17destroyEv@Qt_6 6.6.0
 _ZN9QtWayland39zwp_primary_selection_device_manager_v19interfaceEv@Qt_6 6.6.0
 _ZN9QtWayland39zwp_primary_selection_device_manager_v1C1EP11wl_registryji@Qt_6 6.6.0
 _ZN9QtWayland39zwp_primary_selection_device_manager_v1C1EP39zwp_primary_selection_device_manager_v1@Qt_6 6.6.0
 _ZN9QtWayland39zwp_primary_selection_device_manager_v1C1Ev@Qt_6 6.6.0
 _ZN9QtWayland39zwp_primary_selection_device_manager_v1C2EP11wl_registryji@Qt_6 6.6.0
 _ZN9QtWayland39zwp_primary_selection_device_manager_v1C2EP39zwp_primary_selection_device_manager_v1@Qt_6 6.6.0
 _ZN9QtWayland39zwp_primary_selection_device_manager_v1C2Ev@Qt_6 6.6.0
 _ZN9QtWayland39zwp_primary_selection_device_manager_v1D0Ev@Qt_6 6.6.0
 _ZN9QtWayland39zwp_primary_selection_device_manager_v1D1Ev@Qt_6 6.6.0
 _ZN9QtWayland39zwp_primary_selection_device_manager_v1D2Ev@Qt_6 6.6.0
 _ZN9QtWayland6wl_shm10fromObjectEP6wl_shm@Qt_6 6.6.0
 _ZN9QtWayland6wl_shm10shm_formatEj@Qt_6 6.6.0
 _ZN9QtWayland6wl_shm11create_poolEii@Qt_6 6.6.0
 _ZN9QtWayland6wl_shm13handle_formatEPvP6wl_shmj@Qt_6 6.6.0
 _ZN9QtWayland6wl_shm13init_listenerEv@Qt_6 6.6.0
 _ZN9QtWayland6wl_shm17m_wl_shm_listenerE@Qt_6 6.6.0
 _ZN9QtWayland6wl_shm4initEP11wl_registryji@Qt_6 6.6.0
 _ZN9QtWayland6wl_shm4initEP6wl_shm@Qt_6 6.6.0
 _ZN9QtWayland6wl_shm9interfaceEv@Qt_6 6.6.0
 _ZN9QtWayland6wl_shmC1EP11wl_registryji@Qt_6 6.6.0
 _ZN9QtWayland6wl_shmC1EP6wl_shm@Qt_6 6.6.0
 _ZN9QtWayland6wl_shmC1Ev@Qt_6 6.6.0
 _ZN9QtWayland6wl_shmC2EP11wl_registryji@Qt_6 6.6.0
 _ZN9QtWayland6wl_shmC2EP6wl_shm@Qt_6 6.6.0
 _ZN9QtWayland6wl_shmC2Ev@Qt_6 6.6.0
 _ZN9QtWayland6wl_shmD0Ev@Qt_6 6.6.0
 _ZN9QtWayland6wl_shmD1Ev@Qt_6 6.6.0
 _ZN9QtWayland6wl_shmD2Ev@Qt_6 6.6.0
 _ZN9QtWayland7wl_seat10fromObjectEP7wl_seat@Qt_6 6.6.0
 _ZN9QtWayland7wl_seat11get_pointerEv@Qt_6 6.6.0
 _ZN9QtWayland7wl_seat11handle_nameEPvP7wl_seatPKc@Qt_6 6.6.0
 _ZN9QtWayland7wl_seat12get_keyboardEv@Qt_6 6.6.0
 _ZN9QtWayland7wl_seat13init_listenerEv@Qt_6 6.6.0
 _ZN9QtWayland7wl_seat17seat_capabilitiesEj@Qt_6 6.6.0
 _ZN9QtWayland7wl_seat18m_wl_seat_listenerE@Qt_6 6.6.0
 _ZN9QtWayland7wl_seat19handle_capabilitiesEPvP7wl_seatj@Qt_6 6.6.0
 _ZN9QtWayland7wl_seat4initEP11wl_registryji@Qt_6 6.6.0
 _ZN9QtWayland7wl_seat4initEP7wl_seat@Qt_6 6.6.0
 _ZN9QtWayland7wl_seat7releaseEv@Qt_6 6.6.0
 _ZN9QtWayland7wl_seat9get_touchEv@Qt_6 6.6.0
 _ZN9QtWayland7wl_seat9interfaceEv@Qt_6 6.6.0
 _ZN9QtWayland7wl_seat9seat_nameERK7QString@Qt_6 6.6.0
 _ZN9QtWayland7wl_seatC1EP11wl_registryji@Qt_6 6.6.0
 _ZN9QtWayland7wl_seatC1EP7wl_seat@Qt_6 6.6.0
 _ZN9QtWayland7wl_seatC1Ev@Qt_6 6.6.0
 _ZN9QtWayland7wl_seatC2EP11wl_registryji@Qt_6 6.6.0
 _ZN9QtWayland7wl_seatC2EP7wl_seat@Qt_6 6.6.0
 _ZN9QtWayland7wl_seatC2Ev@Qt_6 6.6.0
 _ZN9QtWayland7wl_seatD0Ev@Qt_6 6.6.0
 _ZN9QtWayland7wl_seatD1Ev@Qt_6 6.6.0
 _ZN9QtWayland7wl_seatD2Ev@Qt_6 6.6.0
 _ZN9QtWayland8wl_shell10fromObjectEP8wl_shell@Qt_6 6.6.0
 _ZN9QtWayland8wl_shell17get_shell_surfaceEP10wl_surface@Qt_6 6.6.0
 _ZN9QtWayland8wl_shell4initEP11wl_registryji@Qt_6 6.6.0
 _ZN9QtWayland8wl_shell4initEP8wl_shell@Qt_6 6.6.0
 _ZN9QtWayland8wl_shell9interfaceEv@Qt_6 6.6.0
 _ZN9QtWayland8wl_shellC1EP11wl_registryji@Qt_6 6.6.0
 _ZN9QtWayland8wl_shellC1EP8wl_shell@Qt_6 6.6.0
 _ZN9QtWayland8wl_shellC1Ev@Qt_6 6.6.0
 _ZN9QtWayland8wl_shellC2EP11wl_registryji@Qt_6 6.6.0
 _ZN9QtWayland8wl_shellC2EP8wl_shell@Qt_6 6.6.0
 _ZN9QtWayland8wl_shellC2Ev@Qt_6 6.6.0
 _ZN9QtWayland8wl_shellD0Ev@Qt_6 6.6.0
 _ZN9QtWayland8wl_shellD1Ev@Qt_6 6.6.0
 _ZN9QtWayland8wl_shellD2Ev@Qt_6 6.6.0
 _ZN9QtWayland8wl_touch10fromObjectEP8wl_touch@Qt_6 6.6.0
 _ZN9QtWayland8wl_touch10touch_downEjjP10wl_surfaceiii@Qt_6 6.6.0
 _ZN9QtWayland8wl_touch11handle_downEPvP8wl_touchjjP10wl_surfaceiii@Qt_6 6.6.0
 _ZN9QtWayland8wl_touch11touch_frameEv@Qt_6 6.6.0
 _ZN9QtWayland8wl_touch11touch_shapeEiii@Qt_6 6.6.0
 _ZN9QtWayland8wl_touch12handle_frameEPvP8wl_touch@Qt_6 6.6.0
 _ZN9QtWayland8wl_touch12handle_shapeEPvP8wl_touchiii@Qt_6 6.6.0
 _ZN9QtWayland8wl_touch12touch_cancelEv@Qt_6 6.6.0
 _ZN9QtWayland8wl_touch12touch_motionEjiii@Qt_6 6.6.0
 _ZN9QtWayland8wl_touch13handle_cancelEPvP8wl_touch@Qt_6 6.6.0
 _ZN9QtWayland8wl_touch13handle_motionEPvP8wl_touchjiii@Qt_6 6.6.0
 _ZN9QtWayland8wl_touch13init_listenerEv@Qt_6 6.6.0
 _ZN9QtWayland8wl_touch17touch_orientationEii@Qt_6 6.6.0
 _ZN9QtWayland8wl_touch18handle_orientationEPvP8wl_touchii@Qt_6 6.6.0
 _ZN9QtWayland8wl_touch19m_wl_touch_listenerE@Qt_6 6.6.0
 _ZN9QtWayland8wl_touch4initEP11wl_registryji@Qt_6 6.6.0
 _ZN9QtWayland8wl_touch4initEP8wl_touch@Qt_6 6.6.0
 _ZN9QtWayland8wl_touch7releaseEv@Qt_6 6.6.0
 _ZN9QtWayland8wl_touch8touch_upEjji@Qt_6 6.6.0
 _ZN9QtWayland8wl_touch9handle_upEPvP8wl_touchjji@Qt_6 6.6.0
 _ZN9QtWayland8wl_touch9interfaceEv@Qt_6 6.6.0
 _ZN9QtWayland8wl_touchC1EP11wl_registryji@Qt_6 6.6.0
 _ZN9QtWayland8wl_touchC1EP8wl_touch@Qt_6 6.6.0
 _ZN9QtWayland8wl_touchC1Ev@Qt_6 6.6.0
 _ZN9QtWayland8wl_touchC2EP11wl_registryji@Qt_6 6.6.0
 _ZN9QtWayland8wl_touchC2EP8wl_touch@Qt_6 6.6.0
 _ZN9QtWayland8wl_touchC2Ev@Qt_6 6.6.0
 _ZN9QtWayland8wl_touchD0Ev@Qt_6 6.6.0
 _ZN9QtWayland8wl_touchD1Ev@Qt_6 6.6.0
 _ZN9QtWayland8wl_touchD2Ev@Qt_6 6.6.0
 _ZN9QtWayland9wl_buffer10fromObjectEP9wl_buffer@Qt_6 6.6.0
 _ZN9QtWayland9wl_buffer13init_listenerEv@Qt_6 6.6.0
 _ZN9QtWayland9wl_buffer14buffer_releaseEv@Qt_6 6.6.0
 _ZN9QtWayland9wl_buffer14handle_releaseEPvP9wl_buffer@Qt_6 6.6.0
 _ZN9QtWayland9wl_buffer20m_wl_buffer_listenerE@Qt_6 6.6.0
 _ZN9QtWayland9wl_buffer4initEP11wl_registryji@Qt_6 6.6.0
 _ZN9QtWayland9wl_buffer4initEP9wl_buffer@Qt_6 6.6.0
 _ZN9QtWayland9wl_buffer7destroyEv@Qt_6 6.6.0
 _ZN9QtWayland9wl_buffer9interfaceEv@Qt_6 6.6.0
 _ZN9QtWayland9wl_bufferC1EP11wl_registryji@Qt_6 6.6.0
 _ZN9QtWayland9wl_bufferC1EP9wl_buffer@Qt_6 6.6.0
 _ZN9QtWayland9wl_bufferC1Ev@Qt_6 6.6.0
 _ZN9QtWayland9wl_bufferC2EP11wl_registryji@Qt_6 6.6.0
 _ZN9QtWayland9wl_bufferC2EP9wl_buffer@Qt_6 6.6.0
 _ZN9QtWayland9wl_bufferC2Ev@Qt_6 6.6.0
 _ZN9QtWayland9wl_bufferD0Ev@Qt_6 6.6.0
 _ZN9QtWayland9wl_bufferD1Ev@Qt_6 6.6.0
 _ZN9QtWayland9wl_bufferD2Ev@Qt_6 6.6.0
 _ZN9QtWayland9wl_output10fromObjectEP9wl_output@Qt_6 6.6.0
 _ZN9QtWayland9wl_output11handle_doneEPvP9wl_output@Qt_6 6.6.0
 _ZN9QtWayland9wl_output11handle_modeEPvP9wl_outputjiii@Qt_6 6.6.0
 _ZN9QtWayland9wl_output11handle_nameEPvP9wl_outputPKc@Qt_6 6.6.0
 _ZN9QtWayland9wl_output11output_doneEv@Qt_6 6.6.0
 _ZN9QtWayland9wl_output11output_modeEjiii@Qt_6 6.6.0
 _ZN9QtWayland9wl_output11output_nameERK7QString@Qt_6 6.6.0
 _ZN9QtWayland9wl_output12handle_scaleEPvP9wl_outputi@Qt_6 6.6.0
 _ZN9QtWayland9wl_output12output_scaleEi@Qt_6 6.6.0
 _ZN9QtWayland9wl_output13init_listenerEv@Qt_6 6.6.0
 _ZN9QtWayland9wl_output15handle_geometryEPvP9wl_outputiiiiiPKcS5_i@Qt_6 6.6.0
 _ZN9QtWayland9wl_output15output_geometryEiiiiiRK7QStringS3_i@Qt_6 6.6.0
 _ZN9QtWayland9wl_output18handle_descriptionEPvP9wl_outputPKc@Qt_6 6.6.0
 _ZN9QtWayland9wl_output18output_descriptionERK7QString@Qt_6 6.6.0
 _ZN9QtWayland9wl_output20m_wl_output_listenerE@Qt_6 6.6.0
 _ZN9QtWayland9wl_output4initEP11wl_registryji@Qt_6 6.6.0
 _ZN9QtWayland9wl_output4initEP9wl_output@Qt_6 6.6.0
 _ZN9QtWayland9wl_output7releaseEv@Qt_6 6.6.0
 _ZN9QtWayland9wl_output9interfaceEv@Qt_6 6.6.0
 _ZN9QtWayland9wl_outputC1EP11wl_registryji@Qt_6 6.6.0
 _ZN9QtWayland9wl_outputC1EP9wl_output@Qt_6 6.6.0
 _ZN9QtWayland9wl_outputC1Ev@Qt_6 6.6.0
 _ZN9QtWayland9wl_outputC2EP11wl_registryji@Qt_6 6.6.0
 _ZN9QtWayland9wl_outputC2EP9wl_output@Qt_6 6.6.0
 _ZN9QtWayland9wl_outputC2Ev@Qt_6 6.6.0
 _ZN9QtWayland9wl_outputD0Ev@Qt_6 6.6.0
 _ZN9QtWayland9wl_outputD1Ev@Qt_6 6.6.0
 _ZN9QtWayland9wl_outputD2Ev@Qt_6 6.6.0
 _ZN9QtWayland9wl_region10fromObjectEP9wl_region@Qt_6 6.6.0
 _ZN9QtWayland9wl_region3addEiiii@Qt_6 6.6.0
 _ZN9QtWayland9wl_region4initEP11wl_registryji@Qt_6 6.6.0
 _ZN9QtWayland9wl_region4initEP9wl_region@Qt_6 6.6.0
 _ZN9QtWayland9wl_region7destroyEv@Qt_6 6.6.0
 _ZN9QtWayland9wl_region8subtractEiiii@Qt_6 6.6.0
 _ZN9QtWayland9wl_region9interfaceEv@Qt_6 6.6.0
 _ZN9QtWayland9wl_regionC1EP11wl_registryji@Qt_6 6.6.0
 _ZN9QtWayland9wl_regionC1EP9wl_region@Qt_6 6.6.0
 _ZN9QtWayland9wl_regionC1Ev@Qt_6 6.6.0
 _ZN9QtWayland9wl_regionC2EP11wl_registryji@Qt_6 6.6.0
 _ZN9QtWayland9wl_regionC2EP9wl_region@Qt_6 6.6.0
 _ZN9QtWayland9wl_regionC2Ev@Qt_6 6.6.0
 _ZN9QtWayland9wl_regionD0Ev@Qt_6 6.6.0
 _ZN9QtWayland9wl_regionD1Ev@Qt_6 6.6.0
 _ZN9QtWayland9wl_regionD2Ev@Qt_6 6.6.0
 _ZN9QtWayland9xdg_popup10fromObjectEP9xdg_popup@Qt_6 6.6.0
 _ZN9QtWayland9xdg_popup10repositionEP14xdg_positionerj@Qt_6 6.6.0
 _ZN9QtWayland9xdg_popup13init_listenerEv@Qt_6 6.6.0
 _ZN9QtWayland9xdg_popup16handle_configureEPvP9xdg_popupiiii@Qt_6 6.6.0
 _ZN9QtWayland9xdg_popup17handle_popup_doneEPvP9xdg_popup@Qt_6 6.6.0
 _ZN9QtWayland9xdg_popup19handle_repositionedEPvP9xdg_popupj@Qt_6 6.6.0
 _ZN9QtWayland9xdg_popup19xdg_popup_configureEiiii@Qt_6 6.6.0
 _ZN9QtWayland9xdg_popup20m_xdg_popup_listenerE@Qt_6 6.6.0
 _ZN9QtWayland9xdg_popup20xdg_popup_popup_doneEv@Qt_6 6.6.0
 _ZN9QtWayland9xdg_popup22xdg_popup_repositionedEj@Qt_6 6.6.0
 _ZN9QtWayland9xdg_popup4grabEP7wl_seatj@Qt_6 6.6.0
 _ZN9QtWayland9xdg_popup4initEP11wl_registryji@Qt_6 6.6.0
 _ZN9QtWayland9xdg_popup4initEP9xdg_popup@Qt_6 6.6.0
 _ZN9QtWayland9xdg_popup7destroyEv@Qt_6 6.6.0
 _ZN9QtWayland9xdg_popup9interfaceEv@Qt_6 6.6.0
 _ZN9QtWayland9xdg_popupC1EP11wl_registryji@Qt_6 6.6.0
 _ZN9QtWayland9xdg_popupC1EP9xdg_popup@Qt_6 6.6.0
 _ZN9QtWayland9xdg_popupC1Ev@Qt_6 6.6.0
 _ZN9QtWayland9xdg_popupC2EP11wl_registryji@Qt_6 6.6.0
 _ZN9QtWayland9xdg_popupC2EP9xdg_popup@Qt_6 6.6.0
 _ZN9QtWayland9xdg_popupC2Ev@Qt_6 6.6.0
 _ZN9QtWayland9xdg_popupD0Ev@Qt_6 6.6.0
 _ZN9QtWayland9xdg_popupD1Ev@Qt_6 6.6.0
 _ZN9QtWayland9xdg_popupD2Ev@Qt_6 6.6.0
 _ZNK23QWaylandClientExtension10metaObjectEv@Qt_6 6.6.0
 _ZNK23QWaylandClientExtension11integrationEv@Qt_6 6.6.0
 _ZNK23QWaylandClientExtension7versionEv@Qt_6 6.6.0
 _ZNK23QWaylandClientExtension8isActiveEv@Qt_6 6.6.0
 _ZNK9QtWayland10wl_pointer13isInitializedEv@Qt_6 6.6.0
 _ZNK9QtWayland10wl_pointer7versionEv@Qt_6 6.6.0
 _ZNK9QtWayland10wl_surface13isInitializedEv@Qt_6 6.6.0
 _ZNK9QtWayland10wl_surface7versionEv@Qt_6 6.6.0
 _ZNK9QtWayland10zqt_key_v113isInitializedEv@Qt_6 6.6.0
 _ZNK9QtWayland10zqt_key_v17versionEv@Qt_6 6.6.0
 _ZNK9QtWayland11wl_callback13isInitializedEv@Qt_6 6.6.0
 _ZNK9QtWayland11wl_callback7versionEv@Qt_6 6.6.0
 _ZNK9QtWayland11wl_keyboard13isInitializedEv@Qt_6 6.6.0
 _ZNK9QtWayland11wl_keyboard7versionEv@Qt_6 6.6.0
 _ZNK9QtWayland11wl_registry13isInitializedEv@Qt_6 6.6.0
 _ZNK9QtWayland11wl_registry7versionEv@Qt_6 6.6.0
 _ZNK9QtWayland11wl_shm_pool13isInitializedEv@Qt_6 6.6.0
 _ZNK9QtWayland11wl_shm_pool7versionEv@Qt_6 6.6.0
 _ZNK9QtWayland11wp_viewport13isInitializedEv@Qt_6 6.6.0
 _ZNK9QtWayland11wp_viewport7versionEv@Qt_6 6.6.0
 _ZNK9QtWayland11xdg_surface13isInitializedEv@Qt_6 6.6.0
 _ZNK9QtWayland11xdg_surface7versionEv@Qt_6 6.6.0
 _ZNK9QtWayland11xdg_wm_base13isInitializedEv@Qt_6 6.6.0
 _ZNK9QtWayland11xdg_wm_base7versionEv@Qt_6 6.6.0
 _ZNK9QtWayland12xdg_toplevel13isInitializedEv@Qt_6 6.6.0
 _ZNK9QtWayland12xdg_toplevel7versionEv@Qt_6 6.6.0
 _ZNK9QtWayland13wl_compositor13isInitializedEv@Qt_6 6.6.0
 _ZNK9QtWayland13wl_compositor7versionEv@Qt_6 6.6.0
 _ZNK9QtWayland13wl_data_offer13isInitializedEv@Qt_6 6.6.0
 _ZNK9QtWayland13wl_data_offer7versionEv@Qt_6 6.6.0
 _ZNK9QtWayland13wl_subsurface13isInitializedEv@Qt_6 6.6.0
 _ZNK9QtWayland13wl_subsurface7versionEv@Qt_6 6.6.0
 _ZNK9QtWayland13wp_viewporter13isInitializedEv@Qt_6 6.6.0
 _ZNK9QtWayland13wp_viewporter7versionEv@Qt_6 6.6.0
 _ZNK9QtWayland13zwp_tablet_v213isInitializedEv@Qt_6 6.6.0
 _ZNK9QtWayland13zwp_tablet_v27versionEv@Qt_6 6.6.0
 _ZNK9QtWayland14wl_data_device13isInitializedEv@Qt_6 6.6.0
 _ZNK9QtWayland14wl_data_device7versionEv@Qt_6 6.6.0
 _ZNK9QtWayland14wl_data_source13isInitializedEv@Qt_6 6.6.0
 _ZNK9QtWayland14wl_data_source7versionEv@Qt_6 6.6.0
 _ZNK9QtWayland14xdg_positioner13isInitializedEv@Qt_6 6.6.0
 _ZNK9QtWayland14xdg_positioner7versionEv@Qt_6 6.6.0
 _ZNK9QtWayland14zxdg_output_v113isInitializedEv@Qt_6 6.6.0
 _ZNK9QtWayland14zxdg_output_v17versionEv@Qt_6 6.6.0
 _ZNK9QtWayland16qt_server_buffer13isInitializedEv@Qt_6 6.6.0
 _ZNK9QtWayland16qt_server_buffer7versionEv@Qt_6 6.6.0
 _ZNK9QtWayland16qt_windowmanager13isInitializedEv@Qt_6 6.6.0
 _ZNK9QtWayland16qt_windowmanager7versionEv@Qt_6 6.6.0
 _ZNK9QtWayland16wl_shell_surface13isInitializedEv@Qt_6 6.6.0
 _ZNK9QtWayland16wl_shell_surface7versionEv@Qt_6 6.6.0
 _ZNK9QtWayland16wl_subcompositor13isInitializedEv@Qt_6 6.6.0
 _ZNK9QtWayland16wl_subcompositor7versionEv@Qt_6 6.6.0
 _ZNK9QtWayland17zwp_tablet_pad_v213isInitializedEv@Qt_6 6.6.0
 _ZNK9QtWayland17zwp_tablet_pad_v27versionEv@Qt_6 6.6.0
 _ZNK9QtWayland17zwp_text_input_v113isInitializedEv@Qt_6 6.6.0
 _ZNK9QtWayland17zwp_text_input_v17versionEv@Qt_6 6.6.0
 _ZNK9QtWayland17zwp_text_input_v213isInitializedEv@Qt_6 6.6.0
 _ZNK9QtWayland17zwp_text_input_v27versionEv@Qt_6 6.6.0
 _ZNK9QtWayland17zwp_text_input_v313isInitializedEv@Qt_6 6.7.2
 _ZNK9QtWayland17zwp_text_input_v37versionEv@Qt_6 6.7.2
 _ZNK9QtWayland18qt_touch_extension13isInitializedEv@Qt_6 6.6.0
 _ZNK9QtWayland18qt_touch_extension7versionEv@Qt_6 6.6.0
 _ZNK9QtWayland18zwp_tablet_seat_v213isInitializedEv@Qt_6 6.6.0
 _ZNK9QtWayland18zwp_tablet_seat_v27versionEv@Qt_6 6.6.0
 _ZNK9QtWayland18zwp_tablet_tool_v213isInitializedEv@Qt_6 6.6.0
 _ZNK9QtWayland18zwp_tablet_tool_v27versionEv@Qt_6 6.6.0
 _ZNK9QtWayland19qt_extended_surface13isInitializedEv@Qt_6 6.6.0
 _ZNK9QtWayland19qt_extended_surface7versionEv@Qt_6 6.6.0
 _ZNK9QtWayland20qt_surface_extension13isInitializedEv@Qt_6 6.6.0
 _ZNK9QtWayland20qt_surface_extension7versionEv@Qt_6 6.6.0
 _ZNK9QtWayland20xdg_toplevel_drag_v113isInitializedEv@Qt_6 6.7.2
 _ZNK9QtWayland20xdg_toplevel_drag_v17versionEv@Qt_6 6.7.2
 _ZNK9QtWayland21zwp_tablet_manager_v213isInitializedEv@Qt_6 6.6.0
 _ZNK9QtWayland21zwp_tablet_manager_v27versionEv@Qt_6 6.6.0
 _ZNK9QtWayland22wl_data_device_manager13isInitializedEv@Qt_6 6.6.0
 _ZNK9QtWayland22wl_data_device_manager7versionEv@Qt_6 6.6.0
 _ZNK9QtWayland22wp_fractional_scale_v113isInitializedEv@Qt_6 6.6.0
 _ZNK9QtWayland22wp_fractional_scale_v17versionEv@Qt_6 6.6.0
 _ZNK9QtWayland22zwp_tablet_pad_ring_v213isInitializedEv@Qt_6 6.6.0
 _ZNK9QtWayland22zwp_tablet_pad_ring_v27versionEv@Qt_6 6.6.0
 _ZNK9QtWayland22zxdg_output_manager_v113isInitializedEv@Qt_6 6.6.0
 _ZNK9QtWayland22zxdg_output_manager_v17versionEv@Qt_6 6.6.0
 _ZNK9QtWayland23qt_hardware_integration13isInitializedEv@Qt_6 6.6.0
 _ZNK9QtWayland23qt_hardware_integration7versionEv@Qt_6 6.6.0
 _ZNK9QtWayland23qt_text_input_method_v113isInitializedEv@Qt_6 6.6.0
 _ZNK9QtWayland23qt_text_input_method_v17versionEv@Qt_6 6.6.0
 _ZNK9QtWayland23zwp_pointer_gestures_v113isInitializedEv@Qt_6 6.6.0
 _ZNK9QtWayland23zwp_pointer_gestures_v17versionEv@Qt_6 6.6.0
 _ZNK9QtWayland23zwp_tablet_pad_group_v213isInitializedEv@Qt_6 6.6.0
 _ZNK9QtWayland23zwp_tablet_pad_group_v27versionEv@Qt_6 6.6.0
 _ZNK9QtWayland23zwp_tablet_pad_strip_v213isInitializedEv@Qt_6 6.6.0
 _ZNK9QtWayland23zwp_tablet_pad_strip_v27versionEv@Qt_6 6.6.0
 _ZNK9QtWayland25wp_cursor_shape_device_v113isInitializedEv@Qt_6 6.6.0
 _ZNK9QtWayland25wp_cursor_shape_device_v17versionEv@Qt_6 6.6.0
 _ZNK9QtWayland25zwp_text_input_manager_v113isInitializedEv@Qt_6 6.6.0
 _ZNK9QtWayland25zwp_text_input_manager_v17versionEv@Qt_6 6.6.0
 _ZNK9QtWayland25zwp_text_input_manager_v213isInitializedEv@Qt_6 6.6.0
 _ZNK9QtWayland25zwp_text_input_manager_v27versionEv@Qt_6 6.6.0
 _ZNK9QtWayland25zwp_text_input_manager_v313isInitializedEv@Qt_6 6.7.2
 _ZNK9QtWayland25zwp_text_input_manager_v37versionEv@Qt_6 6.7.2
 _ZNK9QtWayland26wp_cursor_shape_manager_v113isInitializedEv@Qt_6 6.6.0
 _ZNK9QtWayland26wp_cursor_shape_manager_v17versionEv@Qt_6 6.6.0
 _ZNK9QtWayland28xdg_toplevel_drag_manager_v113isInitializedEv@Qt_6 6.7.2
 _ZNK9QtWayland28xdg_toplevel_drag_manager_v17versionEv@Qt_6 6.7.2
 _ZNK9QtWayland28zwp_pointer_gesture_pinch_v113isInitializedEv@Qt_6 6.6.0
 _ZNK9QtWayland28zwp_pointer_gesture_pinch_v17versionEv@Qt_6 6.6.0
 _ZNK9QtWayland28zwp_pointer_gesture_swipe_v113isInitializedEv@Qt_6 6.6.0
 _ZNK9QtWayland28zwp_pointer_gesture_swipe_v17versionEv@Qt_6 6.6.0
 _ZNK9QtWayland30wp_fractional_scale_manager_v113isInitializedEv@Qt_6 6.6.0
 _ZNK9QtWayland30wp_fractional_scale_manager_v17versionEv@Qt_6 6.6.0
 _ZNK9QtWayland30zwp_primary_selection_offer_v113isInitializedEv@Qt_6 6.6.0
 _ZNK9QtWayland30zwp_primary_selection_offer_v17versionEv@Qt_6 6.6.0
 _ZNK9QtWayland31qt_text_input_method_manager_v113isInitializedEv@Qt_6 6.6.0
 _ZNK9QtWayland31qt_text_input_method_manager_v17versionEv@Qt_6 6.6.0
 _ZNK9QtWayland31zwp_primary_selection_device_v113isInitializedEv@Qt_6 6.6.0
 _ZNK9QtWayland31zwp_primary_selection_device_v17versionEv@Qt_6 6.6.0
 _ZNK9QtWayland31zwp_primary_selection_source_v113isInitializedEv@Qt_6 6.6.0
 _ZNK9QtWayland31zwp_primary_selection_source_v17versionEv@Qt_6 6.6.0
 _ZNK9QtWayland39zwp_primary_selection_device_manager_v113isInitializedEv@Qt_6 6.6.0
 _ZNK9QtWayland39zwp_primary_selection_device_manager_v17versionEv@Qt_6 6.6.0
 _ZNK9QtWayland6wl_shm13isInitializedEv@Qt_6 6.6.0
 _ZNK9QtWayland6wl_shm7versionEv@Qt_6 6.6.0
 _ZNK9QtWayland7wl_seat13isInitializedEv@Qt_6 6.6.0
 _ZNK9QtWayland7wl_seat7versionEv@Qt_6 6.6.0
 _ZNK9QtWayland8wl_shell13isInitializedEv@Qt_6 6.6.0
 _ZNK9QtWayland8wl_shell7versionEv@Qt_6 6.6.0
 _ZNK9QtWayland8wl_touch13isInitializedEv@Qt_6 6.6.0
 _ZNK9QtWayland8wl_touch7versionEv@Qt_6 6.6.0
 _ZNK9QtWayland9wl_buffer13isInitializedEv@Qt_6 6.6.0
 _ZNK9QtWayland9wl_buffer7versionEv@Qt_6 6.6.0
 _ZNK9QtWayland9wl_output13isInitializedEv@Qt_6 6.6.0
 _ZNK9QtWayland9wl_output7versionEv@Qt_6 6.6.0
 _ZNK9QtWayland9wl_region13isInitializedEv@Qt_6 6.6.0
 _ZNK9QtWayland9wl_region7versionEv@Qt_6 6.6.0
 _ZNK9QtWayland9xdg_popup13isInitializedEv@Qt_6 6.6.0
 _ZNK9QtWayland9xdg_popup7versionEv@Qt_6 6.6.0
 _ZTI23QWaylandClientExtension@Qt_6 6.6.0
 _ZTIN9QtWayland10wl_pointerE@Qt_6 6.6.0
 _ZTIN9QtWayland10wl_surfaceE@Qt_6 6.6.0
 _ZTIN9QtWayland10zqt_key_v1E@Qt_6 6.6.0
 _ZTIN9QtWayland11wl_callbackE@Qt_6 6.6.0
 _ZTIN9QtWayland11wl_keyboardE@Qt_6 6.6.0
 _ZTIN9QtWayland11wl_registryE@Qt_6 6.6.0
 _ZTIN9QtWayland11wl_shm_poolE@Qt_6 6.6.0
 _ZTIN9QtWayland11wp_viewportE@Qt_6 6.6.0
 _ZTIN9QtWayland11xdg_surfaceE@Qt_6 6.6.0
 _ZTIN9QtWayland11xdg_wm_baseE@Qt_6 6.6.0
 _ZTIN9QtWayland12xdg_toplevelE@Qt_6 6.6.0
 _ZTIN9QtWayland13wl_compositorE@Qt_6 6.6.0
 _ZTIN9QtWayland13wl_data_offerE@Qt_6 6.6.0
 _ZTIN9QtWayland13wl_subsurfaceE@Qt_6 6.6.0
 _ZTIN9QtWayland13wp_viewporterE@Qt_6 6.6.0
 _ZTIN9QtWayland13zwp_tablet_v2E@Qt_6 6.6.0
 _ZTIN9QtWayland14wl_data_deviceE@Qt_6 6.6.0
 _ZTIN9QtWayland14wl_data_sourceE@Qt_6 6.6.0
 _ZTIN9QtWayland14xdg_positionerE@Qt_6 6.6.0
 _ZTIN9QtWayland14zxdg_output_v1E@Qt_6 6.6.0
 _ZTIN9QtWayland16qt_server_bufferE@Qt_6 6.6.0
 _ZTIN9QtWayland16qt_windowmanagerE@Qt_6 6.6.0
 _ZTIN9QtWayland16wl_shell_surfaceE@Qt_6 6.6.0
 _ZTIN9QtWayland16wl_subcompositorE@Qt_6 6.6.0
 _ZTIN9QtWayland17zwp_tablet_pad_v2E@Qt_6 6.6.0
 _ZTIN9QtWayland17zwp_text_input_v1E@Qt_6 6.6.0
 _ZTIN9QtWayland17zwp_text_input_v2E@Qt_6 6.6.0
 _ZTIN9QtWayland17zwp_text_input_v3E@Qt_6 6.7.2
 _ZTIN9QtWayland18qt_touch_extensionE@Qt_6 6.6.0
 _ZTIN9QtWayland18zwp_tablet_seat_v2E@Qt_6 6.6.0
 _ZTIN9QtWayland18zwp_tablet_tool_v2E@Qt_6 6.6.0
 _ZTIN9QtWayland19qt_extended_surfaceE@Qt_6 6.6.0
 _ZTIN9QtWayland20qt_surface_extensionE@Qt_6 6.6.0
 _ZTIN9QtWayland20xdg_toplevel_drag_v1E@Qt_6 6.7.2
 _ZTIN9QtWayland21zwp_tablet_manager_v2E@Qt_6 6.6.0
 _ZTIN9QtWayland22wl_data_device_managerE@Qt_6 6.6.0
 _ZTIN9QtWayland22wp_fractional_scale_v1E@Qt_6 6.6.0
 _ZTIN9QtWayland22zwp_tablet_pad_ring_v2E@Qt_6 6.6.0
 _ZTIN9QtWayland22zxdg_output_manager_v1E@Qt_6 6.6.0
 _ZTIN9QtWayland23qt_hardware_integrationE@Qt_6 6.6.0
 _ZTIN9QtWayland23qt_text_input_method_v1E@Qt_6 6.6.0
 _ZTIN9QtWayland23zwp_pointer_gestures_v1E@Qt_6 6.6.0
 _ZTIN9QtWayland23zwp_tablet_pad_group_v2E@Qt_6 6.6.0
 _ZTIN9QtWayland23zwp_tablet_pad_strip_v2E@Qt_6 6.6.0
 _ZTIN9QtWayland25wp_cursor_shape_device_v1E@Qt_6 6.6.0
 _ZTIN9QtWayland25zwp_text_input_manager_v1E@Qt_6 6.6.0
 _ZTIN9QtWayland25zwp_text_input_manager_v2E@Qt_6 6.6.0
 _ZTIN9QtWayland25zwp_text_input_manager_v3E@Qt_6 6.7.2
 _ZTIN9QtWayland26wp_cursor_shape_manager_v1E@Qt_6 6.6.0
 _ZTIN9QtWayland28xdg_toplevel_drag_manager_v1E@Qt_6 6.7.2
 _ZTIN9QtWayland28zwp_pointer_gesture_pinch_v1E@Qt_6 6.6.0
 _ZTIN9QtWayland28zwp_pointer_gesture_swipe_v1E@Qt_6 6.6.0
 _ZTIN9QtWayland30wp_fractional_scale_manager_v1E@Qt_6 6.6.0
 _ZTIN9QtWayland30zwp_primary_selection_offer_v1E@Qt_6 6.6.0
 _ZTIN9QtWayland31qt_text_input_method_manager_v1E@Qt_6 6.6.0
 _ZTIN9QtWayland31zwp_primary_selection_device_v1E@Qt_6 6.6.0
 _ZTIN9QtWayland31zwp_primary_selection_source_v1E@Qt_6 6.6.0
 _ZTIN9QtWayland39zwp_primary_selection_device_manager_v1E@Qt_6 6.6.0
 _ZTIN9QtWayland6wl_shmE@Qt_6 6.6.0
 _ZTIN9QtWayland7wl_seatE@Qt_6 6.6.0
 _ZTIN9QtWayland8wl_shellE@Qt_6 6.6.0
 _ZTIN9QtWayland8wl_touchE@Qt_6 6.6.0
 _ZTIN9QtWayland9wl_bufferE@Qt_6 6.6.0
 _ZTIN9QtWayland9wl_outputE@Qt_6 6.6.0
 _ZTIN9QtWayland9wl_regionE@Qt_6 6.6.0
 _ZTIN9QtWayland9xdg_popupE@Qt_6 6.6.0
 _ZTS23QWaylandClientExtension@Qt_6 6.6.0
 _ZTSN9QtWayland10wl_pointerE@Qt_6 6.6.0
 _ZTSN9QtWayland10wl_surfaceE@Qt_6 6.6.0
 _ZTSN9QtWayland10zqt_key_v1E@Qt_6 6.6.0
 _ZTSN9QtWayland11wl_callbackE@Qt_6 6.6.0
 _ZTSN9QtWayland11wl_keyboardE@Qt_6 6.6.0
 _ZTSN9QtWayland11wl_registryE@Qt_6 6.6.0
 _ZTSN9QtWayland11wl_shm_poolE@Qt_6 6.6.0
 _ZTSN9QtWayland11wp_viewportE@Qt_6 6.6.0
 _ZTSN9QtWayland11xdg_surfaceE@Qt_6 6.6.0
 _ZTSN9QtWayland11xdg_wm_baseE@Qt_6 6.6.0
 _ZTSN9QtWayland12xdg_toplevelE@Qt_6 6.6.0
 _ZTSN9QtWayland13wl_compositorE@Qt_6 6.6.0
 _ZTSN9QtWayland13wl_data_offerE@Qt_6 6.6.0
 _ZTSN9QtWayland13wl_subsurfaceE@Qt_6 6.6.0
 _ZTSN9QtWayland13wp_viewporterE@Qt_6 6.6.0
 _ZTSN9QtWayland13zwp_tablet_v2E@Qt_6 6.6.0
 _ZTSN9QtWayland14wl_data_deviceE@Qt_6 6.6.0
 _ZTSN9QtWayland14wl_data_sourceE@Qt_6 6.6.0
 _ZTSN9QtWayland14xdg_positionerE@Qt_6 6.6.0
 _ZTSN9QtWayland14zxdg_output_v1E@Qt_6 6.6.0
 _ZTSN9QtWayland16qt_server_bufferE@Qt_6 6.6.0
 _ZTSN9QtWayland16qt_windowmanagerE@Qt_6 6.6.0
 _ZTSN9QtWayland16wl_shell_surfaceE@Qt_6 6.6.0
 _ZTSN9QtWayland16wl_subcompositorE@Qt_6 6.6.0
 _ZTSN9QtWayland17zwp_tablet_pad_v2E@Qt_6 6.6.0
 _ZTSN9QtWayland17zwp_text_input_v1E@Qt_6 6.6.0
 _ZTSN9QtWayland17zwp_text_input_v2E@Qt_6 6.6.0
 _ZTSN9QtWayland17zwp_text_input_v3E@Qt_6 6.7.2
 _ZTSN9QtWayland18qt_touch_extensionE@Qt_6 6.6.0
 _ZTSN9QtWayland18zwp_tablet_seat_v2E@Qt_6 6.6.0
 _ZTSN9QtWayland18zwp_tablet_tool_v2E@Qt_6 6.6.0
 _ZTSN9QtWayland19qt_extended_surfaceE@Qt_6 6.6.0
 _ZTSN9QtWayland20qt_surface_extensionE@Qt_6 6.6.0
 _ZTSN9QtWayland20xdg_toplevel_drag_v1E@Qt_6 6.7.2
 _ZTSN9QtWayland21zwp_tablet_manager_v2E@Qt_6 6.6.0
 _ZTSN9QtWayland22wl_data_device_managerE@Qt_6 6.6.0
 _ZTSN9QtWayland22wp_fractional_scale_v1E@Qt_6 6.6.0
 _ZTSN9QtWayland22zwp_tablet_pad_ring_v2E@Qt_6 6.6.0
 _ZTSN9QtWayland22zxdg_output_manager_v1E@Qt_6 6.6.0
 _ZTSN9QtWayland23qt_hardware_integrationE@Qt_6 6.6.0
 _ZTSN9QtWayland23qt_text_input_method_v1E@Qt_6 6.6.0
 _ZTSN9QtWayland23zwp_pointer_gestures_v1E@Qt_6 6.6.0
 _ZTSN9QtWayland23zwp_tablet_pad_group_v2E@Qt_6 6.6.0
 _ZTSN9QtWayland23zwp_tablet_pad_strip_v2E@Qt_6 6.6.0
 _ZTSN9QtWayland25wp_cursor_shape_device_v1E@Qt_6 6.6.0
 _ZTSN9QtWayland25zwp_text_input_manager_v1E@Qt_6 6.6.0
 _ZTSN9QtWayland25zwp_text_input_manager_v2E@Qt_6 6.6.0
 _ZTSN9QtWayland25zwp_text_input_manager_v3E@Qt_6 6.7.2
 _ZTSN9QtWayland26wp_cursor_shape_manager_v1E@Qt_6 6.6.0
 _ZTSN9QtWayland28xdg_toplevel_drag_manager_v1E@Qt_6 6.7.2
 _ZTSN9QtWayland28zwp_pointer_gesture_pinch_v1E@Qt_6 6.6.0
 _ZTSN9QtWayland28zwp_pointer_gesture_swipe_v1E@Qt_6 6.6.0
 _ZTSN9QtWayland30wp_fractional_scale_manager_v1E@Qt_6 6.6.0
 _ZTSN9QtWayland30zwp_primary_selection_offer_v1E@Qt_6 6.6.0
 _ZTSN9QtWayland31qt_text_input_method_manager_v1E@Qt_6 6.6.0
 _ZTSN9QtWayland31zwp_primary_selection_device_v1E@Qt_6 6.6.0
 _ZTSN9QtWayland31zwp_primary_selection_source_v1E@Qt_6 6.6.0
 _ZTSN9QtWayland39zwp_primary_selection_device_manager_v1E@Qt_6 6.6.0
 _ZTSN9QtWayland6wl_shmE@Qt_6 6.6.0
 _ZTSN9QtWayland7wl_seatE@Qt_6 6.6.0
 _ZTSN9QtWayland8wl_shellE@Qt_6 6.6.0
 _ZTSN9QtWayland8wl_touchE@Qt_6 6.6.0
 _ZTSN9QtWayland9wl_bufferE@Qt_6 6.6.0
 _ZTSN9QtWayland9wl_outputE@Qt_6 6.6.0
 _ZTSN9QtWayland9wl_regionE@Qt_6 6.6.0
 _ZTSN9QtWayland9xdg_popupE@Qt_6 6.6.0
 _ZTV23QWaylandClientExtension@Qt_6 6.6.0
 _ZTVN9QtWayland10wl_pointerE@Qt_6 6.6.0
 _ZTVN9QtWayland10wl_surfaceE@Qt_6 6.6.0
 _ZTVN9QtWayland10zqt_key_v1E@Qt_6 6.6.0
 _ZTVN9QtWayland11wl_callbackE@Qt_6 6.6.0
 _ZTVN9QtWayland11wl_keyboardE@Qt_6 6.6.0
 _ZTVN9QtWayland11wl_registryE@Qt_6 6.6.0
 _ZTVN9QtWayland11wl_shm_poolE@Qt_6 6.6.0
 _ZTVN9QtWayland11wp_viewportE@Qt_6 6.6.0
 _ZTVN9QtWayland11xdg_surfaceE@Qt_6 6.6.0
 _ZTVN9QtWayland11xdg_wm_baseE@Qt_6 6.6.0
 _ZTVN9QtWayland12xdg_toplevelE@Qt_6 6.6.0
 _ZTVN9QtWayland13wl_compositorE@Qt_6 6.6.0
 _ZTVN9QtWayland13wl_data_offerE@Qt_6 6.6.0
 _ZTVN9QtWayland13wl_subsurfaceE@Qt_6 6.6.0
 _ZTVN9QtWayland13wp_viewporterE@Qt_6 6.6.0
 _ZTVN9QtWayland13zwp_tablet_v2E@Qt_6 6.6.0
 _ZTVN9QtWayland14wl_data_deviceE@Qt_6 6.6.0
 _ZTVN9QtWayland14wl_data_sourceE@Qt_6 6.6.0
 _ZTVN9QtWayland14xdg_positionerE@Qt_6 6.6.0
 _ZTVN9QtWayland14zxdg_output_v1E@Qt_6 6.6.0
 _ZTVN9QtWayland16qt_server_bufferE@Qt_6 6.6.0
 _ZTVN9QtWayland16qt_windowmanagerE@Qt_6 6.6.0
 _ZTVN9QtWayland16wl_shell_surfaceE@Qt_6 6.6.0
 _ZTVN9QtWayland16wl_subcompositorE@Qt_6 6.6.0
 _ZTVN9QtWayland17zwp_tablet_pad_v2E@Qt_6 6.6.0
 _ZTVN9QtWayland17zwp_text_input_v1E@Qt_6 6.6.0
 _ZTVN9QtWayland17zwp_text_input_v2E@Qt_6 6.6.0
 _ZTVN9QtWayland17zwp_text_input_v3E@Qt_6 6.7.2
 _ZTVN9QtWayland18qt_touch_extensionE@Qt_6 6.6.0
 _ZTVN9QtWayland18zwp_tablet_seat_v2E@Qt_6 6.6.0
 _ZTVN9QtWayland18zwp_tablet_tool_v2E@Qt_6 6.6.0
 _ZTVN9QtWayland19qt_extended_surfaceE@Qt_6 6.6.0
 _ZTVN9QtWayland20qt_surface_extensionE@Qt_6 6.6.0
 _ZTVN9QtWayland20xdg_toplevel_drag_v1E@Qt_6 6.7.2
 _ZTVN9QtWayland21zwp_tablet_manager_v2E@Qt_6 6.6.0
 _ZTVN9QtWayland22wl_data_device_managerE@Qt_6 6.6.0
 _ZTVN9QtWayland22wp_fractional_scale_v1E@Qt_6 6.6.0
 _ZTVN9QtWayland22zwp_tablet_pad_ring_v2E@Qt_6 6.6.0
 _ZTVN9QtWayland22zxdg_output_manager_v1E@Qt_6 6.6.0
 _ZTVN9QtWayland23qt_hardware_integrationE@Qt_6 6.6.0
 _ZTVN9QtWayland23qt_text_input_method_v1E@Qt_6 6.6.0
 _ZTVN9QtWayland23zwp_pointer_gestures_v1E@Qt_6 6.6.0
 _ZTVN9QtWayland23zwp_tablet_pad_group_v2E@Qt_6 6.6.0
 _ZTVN9QtWayland23zwp_tablet_pad_strip_v2E@Qt_6 6.6.0
 _ZTVN9QtWayland25wp_cursor_shape_device_v1E@Qt_6 6.6.0
 _ZTVN9QtWayland25zwp_text_input_manager_v1E@Qt_6 6.6.0
 _ZTVN9QtWayland25zwp_text_input_manager_v2E@Qt_6 6.6.0
 _ZTVN9QtWayland25zwp_text_input_manager_v3E@Qt_6 6.7.2
 _ZTVN9QtWayland26wp_cursor_shape_manager_v1E@Qt_6 6.6.0
 _ZTVN9QtWayland28xdg_toplevel_drag_manager_v1E@Qt_6 6.7.2
 _ZTVN9QtWayland28zwp_pointer_gesture_pinch_v1E@Qt_6 6.6.0
 _ZTVN9QtWayland28zwp_pointer_gesture_swipe_v1E@Qt_6 6.6.0
 _ZTVN9QtWayland30wp_fractional_scale_manager_v1E@Qt_6 6.6.0
 _ZTVN9QtWayland30zwp_primary_selection_offer_v1E@Qt_6 6.6.0
 _ZTVN9QtWayland31qt_text_input_method_manager_v1E@Qt_6 6.6.0
 _ZTVN9QtWayland31zwp_primary_selection_device_v1E@Qt_6 6.6.0
 _ZTVN9QtWayland31zwp_primary_selection_source_v1E@Qt_6 6.6.0
 _ZTVN9QtWayland39zwp_primary_selection_device_manager_v1E@Qt_6 6.6.0
 _ZTVN9QtWayland6wl_shmE@Qt_6 6.6.0
 _ZTVN9QtWayland7wl_seatE@Qt_6 6.6.0
 _ZTVN9QtWayland8wl_shellE@Qt_6 6.6.0
 _ZTVN9QtWayland8wl_touchE@Qt_6 6.6.0
 _ZTVN9QtWayland9wl_bufferE@Qt_6 6.6.0
 _ZTVN9QtWayland9wl_outputE@Qt_6 6.6.0
 _ZTVN9QtWayland9wl_regionE@Qt_6 6.6.0
 _ZTVN9QtWayland9xdg_popupE@Qt_6 6.6.0
 qt_extended_surface_interface@Qt_6 6.6.0
 qt_hardware_integration_interface@Qt_6 6.6.0
 qt_server_buffer_interface@Qt_6 6.6.0
 qt_surface_extension_interface@Qt_6 6.6.0
 qt_text_input_method_manager_v1_interface@Qt_6 6.6.0
 qt_text_input_method_v1_interface@Qt_6 6.6.0
 qt_touch_extension_interface@Qt_6 6.6.0
 qt_windowmanager_interface@Qt_6 6.6.0
 wl_buffer_interface@Qt_6 6.6.0
 wl_callback_interface@Qt_6 6.6.0
 wl_compositor_interface@Qt_6 6.6.0
 wl_data_device_interface@Qt_6 6.6.0
 wl_data_device_manager_interface@Qt_6 6.6.0
 wl_data_offer_interface@Qt_6 6.6.0
 wl_data_source_interface@Qt_6 6.6.0
 wl_display_interface@Qt_6 6.6.0
 wl_keyboard_interface@Qt_6 6.6.0
 wl_output_interface@Qt_6 6.6.0
 wl_pointer_interface@Qt_6 6.6.0
 wl_region_interface@Qt_6 6.6.0
 wl_registry_interface@Qt_6 6.6.0
 wl_seat_interface@Qt_6 6.6.0
 wl_shell_interface@Qt_6 6.6.0
 wl_shell_surface_interface@Qt_6 6.6.0
 wl_shm_interface@Qt_6 6.6.0
 wl_shm_pool_interface@Qt_6 6.6.0
 wl_subcompositor_interface@Qt_6 6.6.0
 wl_subsurface_interface@Qt_6 6.6.0
 wl_surface_interface@Qt_6 6.6.0
 wl_touch_interface@Qt_6 6.6.0
 wp_cursor_shape_device_v1_interface@Qt_6 6.6.0
 wp_cursor_shape_manager_v1_interface@Qt_6 6.6.0
 wp_fractional_scale_manager_v1_interface@Qt_6 6.6.0
 wp_fractional_scale_v1_interface@Qt_6 6.6.0
 wp_viewport_interface@Qt_6 6.6.0
 wp_viewporter_interface@Qt_6 6.6.0
 xdg_popup_interface@Qt_6 6.6.0
 xdg_positioner_interface@Qt_6 6.6.0
 xdg_surface_interface@Qt_6 6.6.0
 xdg_toplevel_drag_manager_v1_interface@Qt_6 6.7.2
 xdg_toplevel_drag_v1_interface@Qt_6 6.7.2
 xdg_toplevel_interface@Qt_6 6.6.0
 xdg_wm_base_interface@Qt_6 6.6.0
 zqt_key_v1_interface@Qt_6 6.6.0
 zwp_pointer_gesture_pinch_v1_interface@Qt_6 6.6.0
 zwp_pointer_gesture_swipe_v1_interface@Qt_6 6.6.0
 zwp_pointer_gestures_v1_interface@Qt_6 6.6.0
 zwp_primary_selection_device_manager_v1_interface@Qt_6 6.6.0
 zwp_primary_selection_device_v1_interface@Qt_6 6.6.0
 zwp_primary_selection_offer_v1_interface@Qt_6 6.6.0
 zwp_primary_selection_source_v1_interface@Qt_6 6.6.0
 zwp_tablet_manager_v2_interface@Qt_6 6.6.0
 zwp_tablet_pad_group_v2_interface@Qt_6 6.6.0
 zwp_tablet_pad_ring_v2_interface@Qt_6 6.6.0
 zwp_tablet_pad_strip_v2_interface@Qt_6 6.6.0
 zwp_tablet_pad_v2_interface@Qt_6 6.6.0
 zwp_tablet_seat_v2_interface@Qt_6 6.6.0
 zwp_tablet_tool_v2_interface@Qt_6 6.6.0
 zwp_tablet_v2_interface@Qt_6 6.6.0
 zwp_text_input_manager_v1_interface@Qt_6 6.6.0
 zwp_text_input_manager_v2_interface@Qt_6 6.6.0
 zwp_text_input_manager_v3_interface@Qt_6 6.7.2
 zwp_text_input_v1_interface@Qt_6 6.6.0
 zwp_text_input_v2_interface@Qt_6 6.6.0
 zwp_text_input_v3_interface@Qt_6 6.7.2
 zxdg_output_manager_v1_interface@Qt_6 6.6.0
 zxdg_output_v1_interface@Qt_6 6.6.0
